
_interrupt:
	MOVWF      R15+0
	SWAPF      STATUS+0, 0
	CLRF       STATUS+0
	MOVWF      ___saveSTATUS+0
	MOVF       PCLATH+0, 0
	MOVWF      ___savePCLATH+0
	CLRF       PCLATH+0

;Slave_OA.c,75 :: 		void interrupt()
;Slave_OA.c,77 :: 		if(PIR1.RCIF)
	BTFSS      PIR1+0, 5
	GOTO       L_interrupt0
;Slave_OA.c,79 :: 		while(uart1_data_ready()==0);
L_interrupt1:
	CALL       _UART1_Data_Ready+0
	MOVF       R0+0, 0
	XORLW      0
	BTFSS      STATUS+0, 2
	GOTO       L_interrupt2
	GOTO       L_interrupt1
L_interrupt2:
;Slave_OA.c,80 :: 		if(uart1_data_ready()==1)
	CALL       _UART1_Data_Ready+0
	MOVF       R0+0, 0
	XORLW      1
	BTFSS      STATUS+0, 2
	GOTO       L_interrupt3
;Slave_OA.c,82 :: 		tempReceiveData = UART1_Read();
	CALL       _UART1_Read+0
	MOVF       R0+0, 0
	MOVWF      _tempReceiveData+0
;Slave_OA.c,83 :: 		if(tempReceiveData == 'S')
	MOVF       R0+0, 0
	XORLW      83
	BTFSS      STATUS+0, 2
	GOTO       L_interrupt4
;Slave_OA.c,85 :: 		count=0;
	CLRF       _count+0
;Slave_OA.c,86 :: 		receiveData[count] = tempReceiveData;
	MOVF       _count+0, 0
	ADDLW      _receiveData+0
	MOVWF      FSR
	MOVF       _tempReceiveData+0, 0
	MOVWF      INDF+0
;Slave_OA.c,87 :: 		count++;
	INCF       _count+0, 1
;Slave_OA.c,88 :: 		}
L_interrupt4:
;Slave_OA.c,89 :: 		if(tempReceiveData !='S' && tempReceiveData !='E')
	MOVF       _tempReceiveData+0, 0
	XORLW      83
	BTFSC      STATUS+0, 2
	GOTO       L_interrupt7
	MOVF       _tempReceiveData+0, 0
	XORLW      69
	BTFSC      STATUS+0, 2
	GOTO       L_interrupt7
L__interrupt97:
;Slave_OA.c,91 :: 		receiveData[count] = tempReceiveData;
	MOVF       _count+0, 0
	ADDLW      _receiveData+0
	MOVWF      FSR
	MOVF       _tempReceiveData+0, 0
	MOVWF      INDF+0
;Slave_OA.c,92 :: 		count++;
	INCF       _count+0, 1
;Slave_OA.c,93 :: 		}
L_interrupt7:
;Slave_OA.c,94 :: 		if(tempReceiveData == 'E')
	MOVF       _tempReceiveData+0, 0
	XORLW      69
	BTFSS      STATUS+0, 2
	GOTO       L_interrupt8
;Slave_OA.c,96 :: 		receiveData[count] = tempReceiveData;
	MOVF       _count+0, 0
	ADDLW      _receiveData+0
	MOVWF      FSR
	MOVF       _tempReceiveData+0, 0
	MOVWF      INDF+0
;Slave_OA.c,97 :: 		count=0;
	CLRF       _count+0
;Slave_OA.c,98 :: 		flagReceivedAllData = 1;
	MOVLW      1
	MOVWF      _flagReceivedAllData+0
;Slave_OA.c,99 :: 		}
L_interrupt8:
;Slave_OA.c,100 :: 		}
L_interrupt3:
;Slave_OA.c,101 :: 		}
L_interrupt0:
;Slave_OA.c,102 :: 		}
L_end_interrupt:
L__interrupt107:
	MOVF       ___savePCLATH+0, 0
	MOVWF      PCLATH+0
	SWAPF      ___saveSTATUS+0, 0
	MOVWF      STATUS+0
	SWAPF      R15+0, 1
	SWAPF      R15+0, 0
	RETFIE
; end of _interrupt

_main:

;Slave_OA.c,107 :: 		void main()
;Slave_OA.c,109 :: 		sendData[0]  = 'S';
	MOVLW      83
	MOVWF      _sendData+0
;Slave_OA.c,110 :: 		sendData[1]  = '0';
	MOVLW      48
	MOVWF      _sendData+1
;Slave_OA.c,111 :: 		sendData[2]  = '3';
	MOVLW      51
	MOVWF      _sendData+2
;Slave_OA.c,112 :: 		sendData[3]  = 'D';
	MOVLW      68
	MOVWF      _sendData+3
;Slave_OA.c,113 :: 		sendData[4]  = '0';
	MOVLW      48
	MOVWF      _sendData+4
;Slave_OA.c,114 :: 		sendData[5]  = '4';
	MOVLW      52
	MOVWF      _sendData+5
;Slave_OA.c,115 :: 		sendData[6]  = '0';
	MOVLW      48
	MOVWF      _sendData+6
;Slave_OA.c,116 :: 		sendData[7]  = '0';
	MOVLW      48
	MOVWF      _sendData+7
;Slave_OA.c,117 :: 		sendData[8]  = '0';
	MOVLW      48
	MOVWF      _sendData+8
;Slave_OA.c,118 :: 		sendData[9]  = 'V';
	MOVLW      86
	MOVWF      _sendData+9
;Slave_OA.c,119 :: 		sendData[10] = 'E';
	MOVLW      69
	MOVWF      _sendData+10
;Slave_OA.c,121 :: 		voltage = 0;
	CLRF       _voltage+0
	CLRF       _voltage+1
	CLRF       _voltage+2
	CLRF       _voltage+3
;Slave_OA.c,122 :: 		ampe = 0;
	CLRF       _ampe+0
	CLRF       _ampe+1
	CLRF       _ampe+2
	CLRF       _ampe+3
;Slave_OA.c,123 :: 		activepower = 0;
	CLRF       _activepower+0
	CLRF       _activepower+1
	CLRF       _activepower+2
	CLRF       _activepower+3
;Slave_OA.c,124 :: 		TRISC.B0 = 0;
	BCF        TRISC+0, 0
;Slave_OA.c,125 :: 		PORTC.B0 = 1;
	BSF        PORTC+0, 0
;Slave_OA.c,126 :: 		UART1_Init(9600);
	MOVLW      129
	MOVWF      SPBRG+0
	BSF        TXSTA+0, 2
	CALL       _UART1_Init+0
;Slave_OA.c,127 :: 		Delay_ms(200);
	MOVLW      6
	MOVWF      R11+0
	MOVLW      19
	MOVWF      R12+0
	MOVLW      173
	MOVWF      R13+0
L_main9:
	DECFSZ     R13+0, 1
	GOTO       L_main9
	DECFSZ     R12+0, 1
	GOTO       L_main9
	DECFSZ     R11+0, 1
	GOTO       L_main9
	NOP
	NOP
;Slave_OA.c,128 :: 		SPI1_Init_Advanced(_SPI_MASTER_OSC_DIV64, _SPI_DATA_SAMPLE_MIDDLE, _SPI_CLK_IDLE_LOW, _SPI_HIGH_2_LOW);
	MOVLW      2
	MOVWF      FARG_SPI1_Init_Advanced_master+0
	CLRF       FARG_SPI1_Init_Advanced_data_sample+0
	CLRF       FARG_SPI1_Init_Advanced_clock_idle+0
	CLRF       FARG_SPI1_Init_Advanced_transmit_edge+0
	CALL       _SPI1_Init_Advanced+0
;Slave_OA.c,129 :: 		Delay_ms(200);
	MOVLW      6
	MOVWF      R11+0
	MOVLW      19
	MOVWF      R12+0
	MOVLW      173
	MOVWF      R13+0
L_main10:
	DECFSZ     R13+0, 1
	GOTO       L_main10
	DECFSZ     R12+0, 1
	GOTO       L_main10
	DECFSZ     R11+0, 1
	GOTO       L_main10
	NOP
	NOP
;Slave_OA.c,131 :: 		Write_ADE7753(GAIN,0x0,1);
	MOVLW      15
	MOVWF      FARG_Write_ADE7753_add+0
	CLRF       FARG_Write_ADE7753_write_buffer+0
	CLRF       FARG_Write_ADE7753_write_buffer+1
	CLRF       FARG_Write_ADE7753_write_buffer+2
	CLRF       FARG_Write_ADE7753_write_buffer+3
	MOVLW      1
	MOVWF      FARG_Write_ADE7753_bytes_to_write+0
	MOVLW      0
	MOVWF      FARG_Write_ADE7753_bytes_to_write+1
	CALL       _Write_ADE7753+0
;Slave_OA.c,132 :: 		Write_ADE7753(MODE,0x008C,2);                      //0b0000000010001100
	MOVLW      9
	MOVWF      FARG_Write_ADE7753_add+0
	MOVLW      140
	MOVWF      FARG_Write_ADE7753_write_buffer+0
	CLRF       FARG_Write_ADE7753_write_buffer+1
	CLRF       FARG_Write_ADE7753_write_buffer+2
	CLRF       FARG_Write_ADE7753_write_buffer+3
	MOVLW      2
	MOVWF      FARG_Write_ADE7753_bytes_to_write+0
	MOVLW      0
	MOVWF      FARG_Write_ADE7753_bytes_to_write+1
	CALL       _Write_ADE7753+0
;Slave_OA.c,137 :: 		Delay_ms(200);
	MOVLW      6
	MOVWF      R11+0
	MOVLW      19
	MOVWF      R12+0
	MOVLW      173
	MOVWF      R13+0
L_main11:
	DECFSZ     R13+0, 1
	GOTO       L_main11
	DECFSZ     R12+0, 1
	GOTO       L_main11
	DECFSZ     R11+0, 1
	GOTO       L_main11
	NOP
	NOP
;Slave_OA.c,139 :: 		while(1)
L_main12:
;Slave_OA.c,142 :: 		UART1_Write_Text("\nDien ap: ");
	MOVLW      ?lstr1_Slave_OA+0
	MOVWF      FARG_UART1_Write_Text_uart_text+0
	CALL       _UART1_Write_Text+0
;Slave_OA.c,143 :: 		voltage = getVRMS();
	CALL       _getVRMS+0
	MOVF       R0+0, 0
	MOVWF      _voltage+0
	MOVF       R0+1, 0
	MOVWF      _voltage+1
	MOVF       R0+2, 0
	MOVWF      _voltage+2
	MOVF       R0+3, 0
	MOVWF      _voltage+3
;Slave_OA.c,144 :: 		sendVolt(voltage);
	MOVF       R0+0, 0
	MOVWF      FARG_sendVolt_so+0
	MOVF       R0+1, 0
	MOVWF      FARG_sendVolt_so+1
	MOVF       R0+2, 0
	MOVWF      FARG_sendVolt_so+2
	MOVF       R0+3, 0
	MOVWF      FARG_sendVolt_so+3
	CALL       _sendVolt+0
;Slave_OA.c,146 :: 		Delay_ms(1000);
	MOVLW      26
	MOVWF      R11+0
	MOVLW      94
	MOVWF      R12+0
	MOVLW      110
	MOVWF      R13+0
L_main14:
	DECFSZ     R13+0, 1
	GOTO       L_main14
	DECFSZ     R12+0, 1
	GOTO       L_main14
	DECFSZ     R11+0, 1
	GOTO       L_main14
	NOP
;Slave_OA.c,148 :: 		UART1_Write_Text("\nDong dien: ");
	MOVLW      ?lstr2_Slave_OA+0
	MOVWF      FARG_UART1_Write_Text_uart_text+0
	CALL       _UART1_Write_Text+0
;Slave_OA.c,149 :: 		ampe = getIRMS();
	CALL       _getIRMS+0
	MOVF       R0+0, 0
	MOVWF      _ampe+0
	MOVF       R0+1, 0
	MOVWF      _ampe+1
	MOVF       R0+2, 0
	MOVWF      _ampe+2
	MOVF       R0+3, 0
	MOVWF      _ampe+3
;Slave_OA.c,150 :: 		sendAmpe(ampe);
	MOVF       R0+0, 0
	MOVWF      FARG_sendAmpe_so+0
	MOVF       R0+1, 0
	MOVWF      FARG_sendAmpe_so+1
	MOVF       R0+2, 0
	MOVWF      FARG_sendAmpe_so+2
	MOVF       R0+3, 0
	MOVWF      FARG_sendAmpe_so+3
	CALL       _sendAmpe+0
;Slave_OA.c,152 :: 		Delay_ms(500);
	MOVLW      13
	MOVWF      R11+0
	MOVLW      175
	MOVWF      R12+0
	MOVLW      182
	MOVWF      R13+0
L_main15:
	DECFSZ     R13+0, 1
	GOTO       L_main15
	DECFSZ     R12+0, 1
	GOTO       L_main15
	DECFSZ     R11+0, 1
	GOTO       L_main15
	NOP
;Slave_OA.c,154 :: 		UART1_Write_Text("\nCong suat: ");
	MOVLW      ?lstr3_Slave_OA+0
	MOVWF      FARG_UART1_Write_Text_uart_text+0
	CALL       _UART1_Write_Text+0
;Slave_OA.c,155 :: 		activepower = getAPOWER();
	CALL       _getAPOWER+0
	MOVF       R0+0, 0
	MOVWF      _activepower+0
	MOVF       R0+1, 0
	MOVWF      _activepower+1
	MOVF       R0+2, 0
	MOVWF      _activepower+2
	MOVF       R0+3, 0
	MOVWF      _activepower+3
;Slave_OA.c,156 :: 		sendPower(activepower);
	MOVF       R0+0, 0
	MOVWF      FARG_sendPower_so+0
	MOVF       R0+1, 0
	MOVWF      FARG_sendPower_so+1
	MOVF       R0+2, 0
	MOVWF      FARG_sendPower_so+2
	MOVF       R0+3, 0
	MOVWF      FARG_sendPower_so+3
	CALL       _sendPower+0
;Slave_OA.c,158 :: 		Delay_ms(500);
	MOVLW      13
	MOVWF      R11+0
	MOVLW      175
	MOVWF      R12+0
	MOVLW      182
	MOVWF      R13+0
L_main16:
	DECFSZ     R13+0, 1
	GOTO       L_main16
	DECFSZ     R12+0, 1
	GOTO       L_main16
	DECFSZ     R11+0, 1
	GOTO       L_main16
	NOP
;Slave_OA.c,160 :: 		}
	GOTO       L_main12
;Slave_OA.c,161 :: 		}
L_end_main:
	GOTO       $+0
; end of _main

_Write_ADE7753:

;Slave_OA.c,166 :: 		void Write_ADE7753(char add, long write_buffer, int bytes_to_write)
;Slave_OA.c,172 :: 		add = add|cmd;
	MOVLW      128
	IORWF      FARG_Write_ADE7753_add+0, 0
	MOVWF      R0+0
	MOVF       R0+0, 0
	MOVWF      FARG_Write_ADE7753_add+0
;Slave_OA.c,173 :: 		CS = 0;
	BCF        PORTC+0, 0
;Slave_OA.c,174 :: 		SPI1_Write(add);
	MOVF       R0+0, 0
	MOVWF      FARG_SPI1_Write_data_+0
	CALL       _SPI1_Write+0
;Slave_OA.c,175 :: 		Delay_ms(2);
	MOVLW      13
	MOVWF      R12+0
	MOVLW      251
	MOVWF      R13+0
L_Write_ADE775317:
	DECFSZ     R13+0, 1
	GOTO       L_Write_ADE775317
	DECFSZ     R12+0, 1
	GOTO       L_Write_ADE775317
	NOP
	NOP
;Slave_OA.c,177 :: 		for (i = 0; i < bytes_to_write; i++)
	CLRF       Write_ADE7753_i_L0+0
	CLRF       Write_ADE7753_i_L0+1
L_Write_ADE775318:
	MOVLW      128
	XORWF      Write_ADE7753_i_L0+1, 0
	MOVWF      R0+0
	MOVLW      128
	XORWF      FARG_Write_ADE7753_bytes_to_write+1, 0
	SUBWF      R0+0, 0
	BTFSS      STATUS+0, 2
	GOTO       L__Write_ADE7753110
	MOVF       FARG_Write_ADE7753_bytes_to_write+0, 0
	SUBWF      Write_ADE7753_i_L0+0, 0
L__Write_ADE7753110:
	BTFSC      STATUS+0, 0
	GOTO       L_Write_ADE775319
;Slave_OA.c,179 :: 		this_write = (char) (write_buffer>> (8*((bytes_to_write-1)-i)));
	MOVLW      1
	SUBWF      FARG_Write_ADE7753_bytes_to_write+0, 0
	MOVWF      R0+0
	MOVLW      0
	BTFSS      STATUS+0, 0
	ADDLW      1
	SUBWF      FARG_Write_ADE7753_bytes_to_write+1, 0
	MOVWF      R0+1
	MOVF       Write_ADE7753_i_L0+0, 0
	SUBWF      R0+0, 0
	MOVWF      R3+0
	MOVF       Write_ADE7753_i_L0+1, 0
	BTFSS      STATUS+0, 0
	ADDLW      1
	SUBWF      R0+1, 0
	MOVWF      R3+1
	MOVLW      3
	MOVWF      R2+0
	MOVF       R3+0, 0
	MOVWF      R0+0
	MOVF       R3+1, 0
	MOVWF      R0+1
	MOVF       R2+0, 0
L__Write_ADE7753111:
	BTFSC      STATUS+0, 2
	GOTO       L__Write_ADE7753112
	RLF        R0+0, 1
	RLF        R0+1, 1
	BCF        R0+0, 0
	ADDLW      255
	GOTO       L__Write_ADE7753111
L__Write_ADE7753112:
	MOVF       R0+0, 0
	MOVWF      R4+0
	MOVF       FARG_Write_ADE7753_write_buffer+0, 0
	MOVWF      R0+0
	MOVF       FARG_Write_ADE7753_write_buffer+1, 0
	MOVWF      R0+1
	MOVF       FARG_Write_ADE7753_write_buffer+2, 0
	MOVWF      R0+2
	MOVF       FARG_Write_ADE7753_write_buffer+3, 0
	MOVWF      R0+3
	MOVF       R4+0, 0
L__Write_ADE7753113:
	BTFSC      STATUS+0, 2
	GOTO       L__Write_ADE7753114
	RRF        R0+3, 1
	RRF        R0+2, 1
	RRF        R0+1, 1
	RRF        R0+0, 1
	BCF        R0+3, 7
	BTFSC      R0+3, 6
	BSF        R0+3, 7
	ADDLW      255
	GOTO       L__Write_ADE7753113
L__Write_ADE7753114:
;Slave_OA.c,180 :: 		SPI1_Write(this_write);
	MOVF       R0+0, 0
	MOVWF      FARG_SPI1_Write_data_+0
	CALL       _SPI1_Write+0
;Slave_OA.c,181 :: 		Delay_ms(2);
	MOVLW      13
	MOVWF      R12+0
	MOVLW      251
	MOVWF      R13+0
L_Write_ADE775321:
	DECFSZ     R13+0, 1
	GOTO       L_Write_ADE775321
	DECFSZ     R12+0, 1
	GOTO       L_Write_ADE775321
	NOP
	NOP
;Slave_OA.c,177 :: 		for (i = 0; i < bytes_to_write; i++)
	INCF       Write_ADE7753_i_L0+0, 1
	BTFSC      STATUS+0, 2
	INCF       Write_ADE7753_i_L0+1, 1
;Slave_OA.c,182 :: 		}
	GOTO       L_Write_ADE775318
L_Write_ADE775319:
;Slave_OA.c,183 :: 		CS=1;
	BSF        PORTC+0, 0
;Slave_OA.c,184 :: 		}
L_end_Write_ADE7753:
	RETURN
; end of _Write_ADE7753

_Read_ADE7753:

;Slave_OA.c,188 :: 		long Read_ADE7753(char add, char bytes_to_read)
;Slave_OA.c,193 :: 		CS = 0;
	BCF        PORTC+0, 0
;Slave_OA.c,194 :: 		SPI1_Write(add);
	MOVF       FARG_Read_ADE7753_add+0, 0
	MOVWF      FARG_SPI1_Write_data_+0
	CALL       _SPI1_Write+0
;Slave_OA.c,195 :: 		Delay_ms(2);
	MOVLW      13
	MOVWF      R12+0
	MOVLW      251
	MOVWF      R13+0
L_Read_ADE775322:
	DECFSZ     R13+0, 1
	GOTO       L_Read_ADE775322
	DECFSZ     R12+0, 1
	GOTO       L_Read_ADE775322
	NOP
	NOP
;Slave_OA.c,196 :: 		for (i = 1; i <= bytes_to_read; i++)
	MOVLW      1
	MOVWF      Read_ADE7753_i_L0+0
	MOVLW      0
	MOVWF      Read_ADE7753_i_L0+1
L_Read_ADE775323:
	MOVLW      128
	MOVWF      R0+0
	MOVLW      128
	XORWF      Read_ADE7753_i_L0+1, 0
	SUBWF      R0+0, 0
	BTFSS      STATUS+0, 2
	GOTO       L__Read_ADE7753116
	MOVF       Read_ADE7753_i_L0+0, 0
	SUBWF      FARG_Read_ADE7753_bytes_to_read+0, 0
L__Read_ADE7753116:
	BTFSS      STATUS+0, 0
	GOTO       L_Read_ADE775324
;Slave_OA.c,198 :: 		reader_buf =  SPI1_Read(0x00);
	CLRF       FARG_SPI1_Read_buffer+0
	CALL       _SPI1_Read+0
	MOVF       R0+0, 0
	MOVWF      Read_ADE7753_reader_buf_L0+0
;Slave_OA.c,199 :: 		Delay_ms(2);
	MOVLW      13
	MOVWF      R12+0
	MOVLW      251
	MOVWF      R13+0
L_Read_ADE775326:
	DECFSZ     R13+0, 1
	GOTO       L_Read_ADE775326
	DECFSZ     R12+0, 1
	GOTO       L_Read_ADE775326
	NOP
	NOP
;Slave_OA.c,200 :: 		result = result | reader_buf;
	MOVF       Read_ADE7753_reader_buf_L0+0, 0
	IORWF      Read_ADE7753_result_L0+0, 1
	MOVLW      0
	IORWF      Read_ADE7753_result_L0+1, 1
	IORWF      Read_ADE7753_result_L0+2, 1
	IORWF      Read_ADE7753_result_L0+3, 1
;Slave_OA.c,201 :: 		if(i < bytes_to_read)
	MOVLW      128
	XORWF      Read_ADE7753_i_L0+1, 0
	MOVWF      R0+0
	MOVLW      128
	SUBWF      R0+0, 0
	BTFSS      STATUS+0, 2
	GOTO       L__Read_ADE7753117
	MOVF       FARG_Read_ADE7753_bytes_to_read+0, 0
	SUBWF      Read_ADE7753_i_L0+0, 0
L__Read_ADE7753117:
	BTFSC      STATUS+0, 0
	GOTO       L_Read_ADE775327
;Slave_OA.c,202 :: 		result = result << 8;
	MOVF       Read_ADE7753_result_L0+2, 0
	MOVWF      Read_ADE7753_result_L0+3
	MOVF       Read_ADE7753_result_L0+1, 0
	MOVWF      Read_ADE7753_result_L0+2
	MOVF       Read_ADE7753_result_L0+0, 0
	MOVWF      Read_ADE7753_result_L0+1
	CLRF       Read_ADE7753_result_L0+0
L_Read_ADE775327:
;Slave_OA.c,196 :: 		for (i = 1; i <= bytes_to_read; i++)
	INCF       Read_ADE7753_i_L0+0, 1
	BTFSC      STATUS+0, 2
	INCF       Read_ADE7753_i_L0+1, 1
;Slave_OA.c,203 :: 		}
	GOTO       L_Read_ADE775323
L_Read_ADE775324:
;Slave_OA.c,204 :: 		CS = 1;
	BSF        PORTC+0, 0
;Slave_OA.c,205 :: 		return result;
	MOVF       Read_ADE7753_result_L0+0, 0
	MOVWF      R0+0
	MOVF       Read_ADE7753_result_L0+1, 0
	MOVWF      R0+1
	MOVF       Read_ADE7753_result_L0+2, 0
	MOVWF      R0+2
	MOVF       Read_ADE7753_result_L0+3, 0
	MOVWF      R0+3
;Slave_OA.c,206 :: 		}
L_end_Read_ADE7753:
	RETURN
; end of _Read_ADE7753

_HienthiUART:

;Slave_OA.c,210 :: 		void HienthiUART (long outputADE, int bytes_to_write)
;Slave_OA.c,214 :: 		for (i = 0; i < bytes_to_write; i++)
	CLRF       HienthiUART_i_L0+0
	CLRF       HienthiUART_i_L0+1
L_HienthiUART28:
	MOVLW      128
	XORWF      HienthiUART_i_L0+1, 0
	MOVWF      R0+0
	MOVLW      128
	XORWF      FARG_HienthiUART_bytes_to_write+1, 0
	SUBWF      R0+0, 0
	BTFSS      STATUS+0, 2
	GOTO       L__HienthiUART119
	MOVF       FARG_HienthiUART_bytes_to_write+0, 0
	SUBWF      HienthiUART_i_L0+0, 0
L__HienthiUART119:
	BTFSC      STATUS+0, 0
	GOTO       L_HienthiUART29
;Slave_OA.c,216 :: 		this_write = (char) (outputADE>> (8*((bytes_to_write-1)-i)));
	MOVLW      1
	SUBWF      FARG_HienthiUART_bytes_to_write+0, 0
	MOVWF      R0+0
	MOVLW      0
	BTFSS      STATUS+0, 0
	ADDLW      1
	SUBWF      FARG_HienthiUART_bytes_to_write+1, 0
	MOVWF      R0+1
	MOVF       HienthiUART_i_L0+0, 0
	SUBWF      R0+0, 0
	MOVWF      R3+0
	MOVF       HienthiUART_i_L0+1, 0
	BTFSS      STATUS+0, 0
	ADDLW      1
	SUBWF      R0+1, 0
	MOVWF      R3+1
	MOVLW      3
	MOVWF      R2+0
	MOVF       R3+0, 0
	MOVWF      R0+0
	MOVF       R3+1, 0
	MOVWF      R0+1
	MOVF       R2+0, 0
L__HienthiUART120:
	BTFSC      STATUS+0, 2
	GOTO       L__HienthiUART121
	RLF        R0+0, 1
	RLF        R0+1, 1
	BCF        R0+0, 0
	ADDLW      255
	GOTO       L__HienthiUART120
L__HienthiUART121:
	MOVF       R0+0, 0
	MOVWF      R4+0
	MOVF       FARG_HienthiUART_outputADE+0, 0
	MOVWF      R0+0
	MOVF       FARG_HienthiUART_outputADE+1, 0
	MOVWF      R0+1
	MOVF       FARG_HienthiUART_outputADE+2, 0
	MOVWF      R0+2
	MOVF       FARG_HienthiUART_outputADE+3, 0
	MOVWF      R0+3
	MOVF       R4+0, 0
L__HienthiUART122:
	BTFSC      STATUS+0, 2
	GOTO       L__HienthiUART123
	RRF        R0+3, 1
	RRF        R0+2, 1
	RRF        R0+1, 1
	RRF        R0+0, 1
	BCF        R0+3, 7
	BTFSC      R0+3, 6
	BSF        R0+3, 7
	ADDLW      255
	GOTO       L__HienthiUART122
L__HienthiUART123:
;Slave_OA.c,217 :: 		UART1_Write(this_write);
	MOVF       R0+0, 0
	MOVWF      FARG_UART1_Write_data_+0
	CALL       _UART1_Write+0
;Slave_OA.c,214 :: 		for (i = 0; i < bytes_to_write; i++)
	INCF       HienthiUART_i_L0+0, 1
	BTFSC      STATUS+0, 2
	INCF       HienthiUART_i_L0+1, 1
;Slave_OA.c,218 :: 		}
	GOTO       L_HienthiUART28
L_HienthiUART29:
;Slave_OA.c,219 :: 		}
L_end_HienthiUART:
	RETURN
; end of _HienthiUART

_Hienthisofloat:

;Slave_OA.c,223 :: 		void Hienthisofloat (float so)
;Slave_OA.c,227 :: 		FloatToStr(so,kq);
	MOVF       FARG_Hienthisofloat_so+0, 0
	MOVWF      FARG_FloatToStr_fnum+0
	MOVF       FARG_Hienthisofloat_so+1, 0
	MOVWF      FARG_FloatToStr_fnum+1
	MOVF       FARG_Hienthisofloat_so+2, 0
	MOVWF      FARG_FloatToStr_fnum+2
	MOVF       FARG_Hienthisofloat_so+3, 0
	MOVWF      FARG_FloatToStr_fnum+3
	MOVLW      Hienthisofloat_kq_L0+0
	MOVWF      FARG_FloatToStr_str+0
	CALL       _FloatToStr+0
;Slave_OA.c,228 :: 		UART1_Write_Text(kq);
	MOVLW      Hienthisofloat_kq_L0+0
	MOVWF      FARG_UART1_Write_Text_uart_text+0
	CALL       _UART1_Write_Text+0
;Slave_OA.c,252 :: 		}
L_end_Hienthisofloat:
	RETURN
; end of _Hienthisofloat

_sendVolt:

;Slave_OA.c,254 :: 		void sendVolt(float so){
;Slave_OA.c,256 :: 		FloatToStr(so,kq);
	MOVF       FARG_sendVolt_so+0, 0
	MOVWF      FARG_FloatToStr_fnum+0
	MOVF       FARG_sendVolt_so+1, 0
	MOVWF      FARG_FloatToStr_fnum+1
	MOVF       FARG_sendVolt_so+2, 0
	MOVWF      FARG_FloatToStr_fnum+2
	MOVF       FARG_sendVolt_so+3, 0
	MOVWF      FARG_FloatToStr_fnum+3
	MOVLW      sendVolt_kq_L0+0
	MOVWF      FARG_FloatToStr_str+0
	CALL       _FloatToStr+0
;Slave_OA.c,257 :: 		if(so == 0){
	CLRF       R4+0
	CLRF       R4+1
	CLRF       R4+2
	CLRF       R4+3
	MOVF       FARG_sendVolt_so+0, 0
	MOVWF      R0+0
	MOVF       FARG_sendVolt_so+1, 0
	MOVWF      R0+1
	MOVF       FARG_sendVolt_so+2, 0
	MOVWF      R0+2
	MOVF       FARG_sendVolt_so+3, 0
	MOVWF      R0+3
	CALL       _Equals_Double+0
	MOVLW      1
	BTFSS      STATUS+0, 2
	MOVLW      0
	MOVWF      R0+0
	MOVF       R0+0, 0
	BTFSC      STATUS+0, 2
	GOTO       L_sendVolt31
;Slave_OA.c,258 :: 		sendData[6]  = '0';
	MOVLW      48
	MOVWF      _sendData+6
;Slave_OA.c,259 :: 		sendData[7]  = '0';
	MOVLW      48
	MOVWF      _sendData+7
;Slave_OA.c,260 :: 		sendData[8]  = '0';
	MOVLW      48
	MOVWF      _sendData+8
;Slave_OA.c,261 :: 		sendData[9]  = 'V';
	MOVLW      86
	MOVWF      _sendData+9
;Slave_OA.c,262 :: 		sendData[10] = 'E';
	MOVLW      69
	MOVWF      _sendData+10
;Slave_OA.c,263 :: 		}
L_sendVolt31:
;Slave_OA.c,264 :: 		if(so !=0 && so < 100){
	CLRF       R4+0
	CLRF       R4+1
	CLRF       R4+2
	CLRF       R4+3
	MOVF       FARG_sendVolt_so+0, 0
	MOVWF      R0+0
	MOVF       FARG_sendVolt_so+1, 0
	MOVWF      R0+1
	MOVF       FARG_sendVolt_so+2, 0
	MOVWF      R0+2
	MOVF       FARG_sendVolt_so+3, 0
	MOVWF      R0+3
	CALL       _Equals_Double+0
	MOVLW      1
	BTFSC      STATUS+0, 2
	MOVLW      0
	MOVWF      R0+0
	MOVF       R0+0, 0
	BTFSC      STATUS+0, 2
	GOTO       L_sendVolt34
	MOVLW      0
	MOVWF      R4+0
	MOVLW      0
	MOVWF      R4+1
	MOVLW      72
	MOVWF      R4+2
	MOVLW      133
	MOVWF      R4+3
	MOVF       FARG_sendVolt_so+0, 0
	MOVWF      R0+0
	MOVF       FARG_sendVolt_so+1, 0
	MOVWF      R0+1
	MOVF       FARG_sendVolt_so+2, 0
	MOVWF      R0+2
	MOVF       FARG_sendVolt_so+3, 0
	MOVWF      R0+3
	CALL       _Compare_Double+0
	MOVLW      1
	BTFSC      STATUS+0, 0
	MOVLW      0
	MOVWF      R0+0
	MOVF       R0+0, 0
	BTFSC      STATUS+0, 2
	GOTO       L_sendVolt34
L__sendVolt98:
;Slave_OA.c,265 :: 		sendData[6]  = '0';
	MOVLW      48
	MOVWF      _sendData+6
;Slave_OA.c,266 :: 		sendData[7]  = kq[0];
	MOVF       sendVolt_kq_L0+0, 0
	MOVWF      _sendData+7
;Slave_OA.c,267 :: 		sendData[8]  = kq[1];
	MOVF       sendVolt_kq_L0+1, 0
	MOVWF      _sendData+8
;Slave_OA.c,268 :: 		sendData[9]  = 'V';
	MOVLW      86
	MOVWF      _sendData+9
;Slave_OA.c,269 :: 		sendData[10] = 'E';
	MOVLW      69
	MOVWF      _sendData+10
;Slave_OA.c,270 :: 		}
L_sendVolt34:
;Slave_OA.c,271 :: 		Delay_ms(10);
	MOVLW      65
	MOVWF      R12+0
	MOVLW      238
	MOVWF      R13+0
L_sendVolt35:
	DECFSZ     R13+0, 1
	GOTO       L_sendVolt35
	DECFSZ     R12+0, 1
	GOTO       L_sendVolt35
	NOP
;Slave_OA.c,272 :: 		RS485_send(sendData);
	MOVLW      _sendData+0
	MOVWF      FARG_RS485_send_dat+0
	CALL       _RS485_send+0
;Slave_OA.c,273 :: 		}
L_end_sendVolt:
	RETURN
; end of _sendVolt

_sendAmpe:

;Slave_OA.c,275 :: 		void sendAmpe(float so){
;Slave_OA.c,277 :: 		FloatToStr(so,kq);
	MOVF       FARG_sendAmpe_so+0, 0
	MOVWF      FARG_FloatToStr_fnum+0
	MOVF       FARG_sendAmpe_so+1, 0
	MOVWF      FARG_FloatToStr_fnum+1
	MOVF       FARG_sendAmpe_so+2, 0
	MOVWF      FARG_FloatToStr_fnum+2
	MOVF       FARG_sendAmpe_so+3, 0
	MOVWF      FARG_FloatToStr_fnum+3
	MOVLW      sendAmpe_kq_L0+0
	MOVWF      FARG_FloatToStr_str+0
	CALL       _FloatToStr+0
;Slave_OA.c,278 :: 		if(so == 0){
	CLRF       R4+0
	CLRF       R4+1
	CLRF       R4+2
	CLRF       R4+3
	MOVF       FARG_sendAmpe_so+0, 0
	MOVWF      R0+0
	MOVF       FARG_sendAmpe_so+1, 0
	MOVWF      R0+1
	MOVF       FARG_sendAmpe_so+2, 0
	MOVWF      R0+2
	MOVF       FARG_sendAmpe_so+3, 0
	MOVWF      R0+3
	CALL       _Equals_Double+0
	MOVLW      1
	BTFSS      STATUS+0, 2
	MOVLW      0
	MOVWF      R0+0
	MOVF       R0+0, 0
	BTFSC      STATUS+0, 2
	GOTO       L_sendAmpe36
;Slave_OA.c,279 :: 		sendData[6]  = '0';
	MOVLW      48
	MOVWF      _sendData+6
;Slave_OA.c,280 :: 		sendData[7]  = '0';
	MOVLW      48
	MOVWF      _sendData+7
;Slave_OA.c,281 :: 		sendData[8]  = '0';
	MOVLW      48
	MOVWF      _sendData+8
;Slave_OA.c,282 :: 		sendData[9]  = 'I';
	MOVLW      73
	MOVWF      _sendData+9
;Slave_OA.c,283 :: 		sendData[10] = 'E';
	MOVLW      69
	MOVWF      _sendData+10
;Slave_OA.c,284 :: 		}
L_sendAmpe36:
;Slave_OA.c,285 :: 		if(so !=0 && so < 1 && so > 0.1){
	CLRF       R4+0
	CLRF       R4+1
	CLRF       R4+2
	CLRF       R4+3
	MOVF       FARG_sendAmpe_so+0, 0
	MOVWF      R0+0
	MOVF       FARG_sendAmpe_so+1, 0
	MOVWF      R0+1
	MOVF       FARG_sendAmpe_so+2, 0
	MOVWF      R0+2
	MOVF       FARG_sendAmpe_so+3, 0
	MOVWF      R0+3
	CALL       _Equals_Double+0
	MOVLW      1
	BTFSC      STATUS+0, 2
	MOVLW      0
	MOVWF      R0+0
	MOVF       R0+0, 0
	BTFSC      STATUS+0, 2
	GOTO       L_sendAmpe39
	MOVLW      0
	MOVWF      R4+0
	MOVLW      0
	MOVWF      R4+1
	MOVLW      0
	MOVWF      R4+2
	MOVLW      127
	MOVWF      R4+3
	MOVF       FARG_sendAmpe_so+0, 0
	MOVWF      R0+0
	MOVF       FARG_sendAmpe_so+1, 0
	MOVWF      R0+1
	MOVF       FARG_sendAmpe_so+2, 0
	MOVWF      R0+2
	MOVF       FARG_sendAmpe_so+3, 0
	MOVWF      R0+3
	CALL       _Compare_Double+0
	MOVLW      1
	BTFSC      STATUS+0, 0
	MOVLW      0
	MOVWF      R0+0
	MOVF       R0+0, 0
	BTFSC      STATUS+0, 2
	GOTO       L_sendAmpe39
	MOVF       FARG_sendAmpe_so+0, 0
	MOVWF      R4+0
	MOVF       FARG_sendAmpe_so+1, 0
	MOVWF      R4+1
	MOVF       FARG_sendAmpe_so+2, 0
	MOVWF      R4+2
	MOVF       FARG_sendAmpe_so+3, 0
	MOVWF      R4+3
	MOVLW      205
	MOVWF      R0+0
	MOVLW      204
	MOVWF      R0+1
	MOVLW      76
	MOVWF      R0+2
	MOVLW      123
	MOVWF      R0+3
	CALL       _Compare_Double+0
	MOVLW      1
	BTFSC      STATUS+0, 0
	MOVLW      0
	MOVWF      R0+0
	MOVF       R0+0, 0
	BTFSC      STATUS+0, 2
	GOTO       L_sendAmpe39
L__sendAmpe99:
;Slave_OA.c,286 :: 		sendData[6]  = '0';
	MOVLW      48
	MOVWF      _sendData+6
;Slave_OA.c,287 :: 		sendData[7]  = '.';
	MOVLW      46
	MOVWF      _sendData+7
;Slave_OA.c,288 :: 		sendData[8]  = kq[0];
	MOVF       sendAmpe_kq_L0+0, 0
	MOVWF      _sendData+8
;Slave_OA.c,289 :: 		sendData[9]  = 'I';
	MOVLW      73
	MOVWF      _sendData+9
;Slave_OA.c,290 :: 		sendData[10] = 'E';
	MOVLW      69
	MOVWF      _sendData+10
;Slave_OA.c,291 :: 		}
	GOTO       L_sendAmpe40
L_sendAmpe39:
;Slave_OA.c,292 :: 		else if(so>1){
	MOVF       FARG_sendAmpe_so+0, 0
	MOVWF      R4+0
	MOVF       FARG_sendAmpe_so+1, 0
	MOVWF      R4+1
	MOVF       FARG_sendAmpe_so+2, 0
	MOVWF      R4+2
	MOVF       FARG_sendAmpe_so+3, 0
	MOVWF      R4+3
	MOVLW      0
	MOVWF      R0+0
	MOVLW      0
	MOVWF      R0+1
	MOVLW      0
	MOVWF      R0+2
	MOVLW      127
	MOVWF      R0+3
	CALL       _Compare_Double+0
	MOVLW      1
	BTFSC      STATUS+0, 0
	MOVLW      0
	MOVWF      R0+0
	MOVF       R0+0, 0
	BTFSC      STATUS+0, 2
	GOTO       L_sendAmpe41
;Slave_OA.c,293 :: 		sendData[6]  = kq[0];
	MOVF       sendAmpe_kq_L0+0, 0
	MOVWF      _sendData+6
;Slave_OA.c,294 :: 		sendData[7]  = '.';
	MOVLW      46
	MOVWF      _sendData+7
;Slave_OA.c,295 :: 		sendData[8]  = kq[2];
	MOVF       sendAmpe_kq_L0+2, 0
	MOVWF      _sendData+8
;Slave_OA.c,296 :: 		sendData[9]  = 'I';
	MOVLW      73
	MOVWF      _sendData+9
;Slave_OA.c,297 :: 		sendData[10] = 'E';
	MOVLW      69
	MOVWF      _sendData+10
;Slave_OA.c,298 :: 		}
L_sendAmpe41:
L_sendAmpe40:
;Slave_OA.c,299 :: 		Delay_ms(10);
	MOVLW      65
	MOVWF      R12+0
	MOVLW      238
	MOVWF      R13+0
L_sendAmpe42:
	DECFSZ     R13+0, 1
	GOTO       L_sendAmpe42
	DECFSZ     R12+0, 1
	GOTO       L_sendAmpe42
	NOP
;Slave_OA.c,300 :: 		RS485_send(sendData);
	MOVLW      _sendData+0
	MOVWF      FARG_RS485_send_dat+0
	CALL       _RS485_send+0
;Slave_OA.c,301 :: 		}
L_end_sendAmpe:
	RETURN
; end of _sendAmpe

_sendPower:

;Slave_OA.c,303 :: 		void sendPower(float so){
;Slave_OA.c,305 :: 		FloatToStr(so,kq);
	MOVF       FARG_sendPower_so+0, 0
	MOVWF      FARG_FloatToStr_fnum+0
	MOVF       FARG_sendPower_so+1, 0
	MOVWF      FARG_FloatToStr_fnum+1
	MOVF       FARG_sendPower_so+2, 0
	MOVWF      FARG_FloatToStr_fnum+2
	MOVF       FARG_sendPower_so+3, 0
	MOVWF      FARG_FloatToStr_fnum+3
	MOVLW      sendPower_kq_L0+0
	MOVWF      FARG_FloatToStr_str+0
	CALL       _FloatToStr+0
;Slave_OA.c,306 :: 		if(so == 0){
	CLRF       R4+0
	CLRF       R4+1
	CLRF       R4+2
	CLRF       R4+3
	MOVF       FARG_sendPower_so+0, 0
	MOVWF      R0+0
	MOVF       FARG_sendPower_so+1, 0
	MOVWF      R0+1
	MOVF       FARG_sendPower_so+2, 0
	MOVWF      R0+2
	MOVF       FARG_sendPower_so+3, 0
	MOVWF      R0+3
	CALL       _Equals_Double+0
	MOVLW      1
	BTFSS      STATUS+0, 2
	MOVLW      0
	MOVWF      R0+0
	MOVF       R0+0, 0
	BTFSC      STATUS+0, 2
	GOTO       L_sendPower43
;Slave_OA.c,307 :: 		sendData[6]  = '0';
	MOVLW      48
	MOVWF      _sendData+6
;Slave_OA.c,308 :: 		sendData[7]  = '0';
	MOVLW      48
	MOVWF      _sendData+7
;Slave_OA.c,309 :: 		sendData[8]  = '0';
	MOVLW      48
	MOVWF      _sendData+8
;Slave_OA.c,310 :: 		sendData[9]  = 'P';
	MOVLW      80
	MOVWF      _sendData+9
;Slave_OA.c,311 :: 		sendData[10] = 'E';
	MOVLW      69
	MOVWF      _sendData+10
;Slave_OA.c,312 :: 		}
L_sendPower43:
;Slave_OA.c,313 :: 		if(so !=0 && so < 10){
	CLRF       R4+0
	CLRF       R4+1
	CLRF       R4+2
	CLRF       R4+3
	MOVF       FARG_sendPower_so+0, 0
	MOVWF      R0+0
	MOVF       FARG_sendPower_so+1, 0
	MOVWF      R0+1
	MOVF       FARG_sendPower_so+2, 0
	MOVWF      R0+2
	MOVF       FARG_sendPower_so+3, 0
	MOVWF      R0+3
	CALL       _Equals_Double+0
	MOVLW      1
	BTFSC      STATUS+0, 2
	MOVLW      0
	MOVWF      R0+0
	MOVF       R0+0, 0
	BTFSC      STATUS+0, 2
	GOTO       L_sendPower46
	MOVLW      0
	MOVWF      R4+0
	MOVLW      0
	MOVWF      R4+1
	MOVLW      32
	MOVWF      R4+2
	MOVLW      130
	MOVWF      R4+3
	MOVF       FARG_sendPower_so+0, 0
	MOVWF      R0+0
	MOVF       FARG_sendPower_so+1, 0
	MOVWF      R0+1
	MOVF       FARG_sendPower_so+2, 0
	MOVWF      R0+2
	MOVF       FARG_sendPower_so+3, 0
	MOVWF      R0+3
	CALL       _Compare_Double+0
	MOVLW      1
	BTFSC      STATUS+0, 0
	MOVLW      0
	MOVWF      R0+0
	MOVF       R0+0, 0
	BTFSC      STATUS+0, 2
	GOTO       L_sendPower46
L__sendPower102:
;Slave_OA.c,314 :: 		sendData[6]  = '0';
	MOVLW      48
	MOVWF      _sendData+6
;Slave_OA.c,315 :: 		sendData[7]  = '0';
	MOVLW      48
	MOVWF      _sendData+7
;Slave_OA.c,316 :: 		sendData[8]  = kq[0];
	MOVF       sendPower_kq_L0+0, 0
	MOVWF      _sendData+8
;Slave_OA.c,317 :: 		sendData[9]  = 'P';
	MOVLW      80
	MOVWF      _sendData+9
;Slave_OA.c,318 :: 		sendData[10] = 'E';
	MOVLW      69
	MOVWF      _sendData+10
;Slave_OA.c,319 :: 		}
L_sendPower46:
;Slave_OA.c,320 :: 		if(so < 100 && so > 10){
	MOVLW      0
	MOVWF      R4+0
	MOVLW      0
	MOVWF      R4+1
	MOVLW      72
	MOVWF      R4+2
	MOVLW      133
	MOVWF      R4+3
	MOVF       FARG_sendPower_so+0, 0
	MOVWF      R0+0
	MOVF       FARG_sendPower_so+1, 0
	MOVWF      R0+1
	MOVF       FARG_sendPower_so+2, 0
	MOVWF      R0+2
	MOVF       FARG_sendPower_so+3, 0
	MOVWF      R0+3
	CALL       _Compare_Double+0
	MOVLW      1
	BTFSC      STATUS+0, 0
	MOVLW      0
	MOVWF      R0+0
	MOVF       R0+0, 0
	BTFSC      STATUS+0, 2
	GOTO       L_sendPower49
	MOVF       FARG_sendPower_so+0, 0
	MOVWF      R4+0
	MOVF       FARG_sendPower_so+1, 0
	MOVWF      R4+1
	MOVF       FARG_sendPower_so+2, 0
	MOVWF      R4+2
	MOVF       FARG_sendPower_so+3, 0
	MOVWF      R4+3
	MOVLW      0
	MOVWF      R0+0
	MOVLW      0
	MOVWF      R0+1
	MOVLW      32
	MOVWF      R0+2
	MOVLW      130
	MOVWF      R0+3
	CALL       _Compare_Double+0
	MOVLW      1
	BTFSC      STATUS+0, 0
	MOVLW      0
	MOVWF      R0+0
	MOVF       R0+0, 0
	BTFSC      STATUS+0, 2
	GOTO       L_sendPower49
L__sendPower101:
;Slave_OA.c,321 :: 		sendData[6]  = '0';
	MOVLW      48
	MOVWF      _sendData+6
;Slave_OA.c,322 :: 		sendData[7]  = kq[0];
	MOVF       sendPower_kq_L0+0, 0
	MOVWF      _sendData+7
;Slave_OA.c,323 :: 		sendData[8]  = kq[1];
	MOVF       sendPower_kq_L0+1, 0
	MOVWF      _sendData+8
;Slave_OA.c,324 :: 		sendData[9]  = 'P';
	MOVLW      80
	MOVWF      _sendData+9
;Slave_OA.c,325 :: 		sendData[10] = 'E';
	MOVLW      69
	MOVWF      _sendData+10
;Slave_OA.c,326 :: 		}
L_sendPower49:
;Slave_OA.c,327 :: 		if(so < 1000 && so > 100){
	MOVLW      0
	MOVWF      R4+0
	MOVLW      0
	MOVWF      R4+1
	MOVLW      122
	MOVWF      R4+2
	MOVLW      136
	MOVWF      R4+3
	MOVF       FARG_sendPower_so+0, 0
	MOVWF      R0+0
	MOVF       FARG_sendPower_so+1, 0
	MOVWF      R0+1
	MOVF       FARG_sendPower_so+2, 0
	MOVWF      R0+2
	MOVF       FARG_sendPower_so+3, 0
	MOVWF      R0+3
	CALL       _Compare_Double+0
	MOVLW      1
	BTFSC      STATUS+0, 0
	MOVLW      0
	MOVWF      R0+0
	MOVF       R0+0, 0
	BTFSC      STATUS+0, 2
	GOTO       L_sendPower52
	MOVF       FARG_sendPower_so+0, 0
	MOVWF      R4+0
	MOVF       FARG_sendPower_so+1, 0
	MOVWF      R4+1
	MOVF       FARG_sendPower_so+2, 0
	MOVWF      R4+2
	MOVF       FARG_sendPower_so+3, 0
	MOVWF      R4+3
	MOVLW      0
	MOVWF      R0+0
	MOVLW      0
	MOVWF      R0+1
	MOVLW      72
	MOVWF      R0+2
	MOVLW      133
	MOVWF      R0+3
	CALL       _Compare_Double+0
	MOVLW      1
	BTFSC      STATUS+0, 0
	MOVLW      0
	MOVWF      R0+0
	MOVF       R0+0, 0
	BTFSC      STATUS+0, 2
	GOTO       L_sendPower52
L__sendPower100:
;Slave_OA.c,328 :: 		sendData[6]  = kq[0];
	MOVF       sendPower_kq_L0+0, 0
	MOVWF      _sendData+6
;Slave_OA.c,329 :: 		sendData[7]  = kq[1];
	MOVF       sendPower_kq_L0+1, 0
	MOVWF      _sendData+7
;Slave_OA.c,330 :: 		sendData[8]  = kq[2];
	MOVF       sendPower_kq_L0+2, 0
	MOVWF      _sendData+8
;Slave_OA.c,331 :: 		sendData[9]  = 'P';
	MOVLW      80
	MOVWF      _sendData+9
;Slave_OA.c,332 :: 		sendData[10] = 'E';
	MOVLW      69
	MOVWF      _sendData+10
;Slave_OA.c,333 :: 		}
L_sendPower52:
;Slave_OA.c,334 :: 		Delay_ms(10);
	MOVLW      65
	MOVWF      R12+0
	MOVLW      238
	MOVWF      R13+0
L_sendPower53:
	DECFSZ     R13+0, 1
	GOTO       L_sendPower53
	DECFSZ     R12+0, 1
	GOTO       L_sendPower53
	NOP
;Slave_OA.c,335 :: 		RS485_send(sendData);
	MOVLW      _sendData+0
	MOVWF      FARG_RS485_send_dat+0
	CALL       _RS485_send+0
;Slave_OA.c,336 :: 		}
L_end_sendPower:
	RETURN
; end of _sendPower

_getresetInterruptStatus:

;Slave_OA.c,340 :: 		long getresetInterruptStatus(void){
;Slave_OA.c,341 :: 		return Read_ADE7753(RSTSTATUS,2);
	MOVLW      12
	MOVWF      FARG_Read_ADE7753_add+0
	MOVLW      2
	MOVWF      FARG_Read_ADE7753_bytes_to_read+0
	CALL       _Read_ADE7753+0
;Slave_OA.c,342 :: 		}
L_end_getresetInterruptStatus:
	RETURN
; end of _getresetInterruptStatus

_getInterruptStatus:

;Slave_OA.c,346 :: 		long getInterruptStatus(void){
;Slave_OA.c,347 :: 		return Read_ADE7753(STATUS,2);
	MOVLW      11
	MOVWF      FARG_Read_ADE7753_add+0
	MOVLW      2
	MOVWF      FARG_Read_ADE7753_bytes_to_read+0
	CALL       _Read_ADE7753+0
;Slave_OA.c,348 :: 		}
L_end_getInterruptStatus:
	RETURN
; end of _getInterruptStatus

_getVRMS:

;Slave_OA.c,352 :: 		float getVRMS (void)
;Slave_OA.c,357 :: 		totalv = 0;
	CLRF       getVRMS_totalv_L0+0
	CLRF       getVRMS_totalv_L0+1
	CLRF       getVRMS_totalv_L0+2
	CLRF       getVRMS_totalv_L0+3
;Slave_OA.c,358 :: 		j = 0;
	CLRF       getVRMS_j_L0+0
	CLRF       getVRMS_j_L0+1
;Slave_OA.c,359 :: 		Write_ADE7753(IRQEN,0x0010,2);
	MOVLW      10
	MOVWF      FARG_Write_ADE7753_add+0
	MOVLW      16
	MOVWF      FARG_Write_ADE7753_write_buffer+0
	CLRF       FARG_Write_ADE7753_write_buffer+1
	CLRF       FARG_Write_ADE7753_write_buffer+2
	CLRF       FARG_Write_ADE7753_write_buffer+3
	MOVLW      2
	MOVWF      FARG_Write_ADE7753_bytes_to_write+0
	MOVLW      0
	MOVWF      FARG_Write_ADE7753_bytes_to_write+1
	CALL       _Write_ADE7753+0
;Slave_OA.c,360 :: 		for(i=0;i<10;i++)
	CLRF       getVRMS_i_L0+0
	CLRF       getVRMS_i_L0+1
L_getVRMS54:
	MOVLW      128
	XORWF      getVRMS_i_L0+1, 0
	MOVWF      R0+0
	MOVLW      128
	SUBWF      R0+0, 0
	BTFSS      STATUS+0, 2
	GOTO       L__getVRMS131
	MOVLW      10
	SUBWF      getVRMS_i_L0+0, 0
L__getVRMS131:
	BTFSC      STATUS+0, 0
	GOTO       L_getVRMS55
;Slave_OA.c,362 :: 		getresetInterruptStatus();
	CALL       _getresetInterruptStatus+0
;Slave_OA.c,363 :: 		while(! (getInterruptStatus() & ZX)){
L_getVRMS57:
	CALL       _getInterruptStatus+0
	BTFSC      R0+0, 4
	GOTO       L_getVRMS58
;Slave_OA.c,364 :: 		j++;
	INCF       getVRMS_j_L0+0, 1
	BTFSC      STATUS+0, 2
	INCF       getVRMS_j_L0+1, 1
;Slave_OA.c,365 :: 		if(j>100){
	MOVLW      128
	MOVWF      R0+0
	MOVLW      128
	XORWF      getVRMS_j_L0+1, 0
	SUBWF      R0+0, 0
	BTFSS      STATUS+0, 2
	GOTO       L__getVRMS132
	MOVF       getVRMS_j_L0+0, 0
	SUBLW      100
L__getVRMS132:
	BTFSC      STATUS+0, 0
	GOTO       L_getVRMS59
;Slave_OA.c,366 :: 		j=0;
	CLRF       getVRMS_j_L0+0
	CLRF       getVRMS_j_L0+1
;Slave_OA.c,367 :: 		break;
	GOTO       L_getVRMS58
;Slave_OA.c,368 :: 		}
L_getVRMS59:
;Slave_OA.c,369 :: 		}
	GOTO       L_getVRMS57
L_getVRMS58:
;Slave_OA.c,370 :: 		outputADE=Read_ADE7753(VRMS,3);
	MOVLW      23
	MOVWF      FARG_Read_ADE7753_add+0
	MOVLW      3
	MOVWF      FARG_Read_ADE7753_bytes_to_read+0
	CALL       _Read_ADE7753+0
	MOVF       R0+0, 0
	MOVWF      _outputADE+0
	MOVF       R0+1, 0
	MOVWF      _outputADE+1
	MOVF       R0+2, 0
	MOVWF      _outputADE+2
	MOVF       R0+3, 0
	MOVWF      _outputADE+3
;Slave_OA.c,371 :: 		Delay_ms(20);
	MOVLW      130
	MOVWF      R12+0
	MOVLW      221
	MOVWF      R13+0
L_getVRMS60:
	DECFSZ     R13+0, 1
	GOTO       L_getVRMS60
	DECFSZ     R12+0, 1
	GOTO       L_getVRMS60
	NOP
	NOP
;Slave_OA.c,372 :: 		totalv=totalv+outputADE;
	MOVF       _outputADE+0, 0
	ADDWF      getVRMS_totalv_L0+0, 1
	MOVF       _outputADE+1, 0
	BTFSC      STATUS+0, 0
	INCFSZ     _outputADE+1, 0
	ADDWF      getVRMS_totalv_L0+1, 1
	MOVF       _outputADE+2, 0
	BTFSC      STATUS+0, 0
	INCFSZ     _outputADE+2, 0
	ADDWF      getVRMS_totalv_L0+2, 1
	MOVF       _outputADE+3, 0
	BTFSC      STATUS+0, 0
	INCFSZ     _outputADE+3, 0
	ADDWF      getVRMS_totalv_L0+3, 1
;Slave_OA.c,373 :: 		Delay_ms(25);
	MOVLW      163
	MOVWF      R12+0
	MOVLW      85
	MOVWF      R13+0
L_getVRMS61:
	DECFSZ     R13+0, 1
	GOTO       L_getVRMS61
	DECFSZ     R12+0, 1
	GOTO       L_getVRMS61
;Slave_OA.c,360 :: 		for(i=0;i<10;i++)
	INCF       getVRMS_i_L0+0, 1
	BTFSC      STATUS+0, 2
	INCF       getVRMS_i_L0+1, 1
;Slave_OA.c,374 :: 		}
	GOTO       L_getVRMS54
L_getVRMS55:
;Slave_OA.c,375 :: 		getresetInterruptStatus();
	CALL       _getresetInterruptStatus+0
;Slave_OA.c,376 :: 		vrmsraw = totalv/10;
	MOVLW      10
	MOVWF      R4+0
	CLRF       R4+1
	CLRF       R4+2
	CLRF       R4+3
	MOVF       getVRMS_totalv_L0+0, 0
	MOVWF      R0+0
	MOVF       getVRMS_totalv_L0+1, 0
	MOVWF      R0+1
	MOVF       getVRMS_totalv_L0+2, 0
	MOVWF      R0+2
	MOVF       getVRMS_totalv_L0+3, 0
	MOVWF      R0+3
	CALL       _Div_32x32_S+0
;Slave_OA.c,378 :: 		vrmsraw = vrmsraw & 0xFFFFFF;
	MOVLW      255
	ANDWF      R0+0, 1
	MOVLW      255
	ANDWF      R0+1, 1
	MOVLW      255
	ANDWF      R0+2, 1
	MOVLW      0
	ANDWF      R0+3, 1
;Slave_OA.c,380 :: 		vrmsreal = (float)vrmsraw;
	CALL       _longint2double+0
	MOVF       R0+0, 0
	MOVWF      getVRMS_vrmsreal_L0+0
	MOVF       R0+1, 0
	MOVWF      getVRMS_vrmsreal_L0+1
	MOVF       R0+2, 0
	MOVWF      getVRMS_vrmsreal_L0+2
	MOVF       R0+3, 0
	MOVWF      getVRMS_vrmsreal_L0+3
;Slave_OA.c,381 :: 		vrmsreal = vrmsreal * 0.00033834;
	MOVLW      58
	MOVWF      R4+0
	MOVLW      99
	MOVWF      R4+1
	MOVLW      49
	MOVWF      R4+2
	MOVLW      115
	MOVWF      R4+3
	CALL       _Mul_32x32_FP+0
	MOVF       R0+0, 0
	MOVWF      getVRMS_vrmsreal_L0+0
	MOVF       R0+1, 0
	MOVWF      getVRMS_vrmsreal_L0+1
	MOVF       R0+2, 0
	MOVWF      getVRMS_vrmsreal_L0+2
	MOVF       R0+3, 0
	MOVWF      getVRMS_vrmsreal_L0+3
;Slave_OA.c,382 :: 		vrmsreal = vrmsreal- 2626.4;
	MOVLW      102
	MOVWF      R4+0
	MOVLW      38
	MOVWF      R4+1
	MOVLW      36
	MOVWF      R4+2
	MOVLW      138
	MOVWF      R4+3
	CALL       _Sub_32x32_FP+0
	MOVF       R0+0, 0
	MOVWF      getVRMS_vrmsreal_L0+0
	MOVF       R0+1, 0
	MOVWF      getVRMS_vrmsreal_L0+1
	MOVF       R0+2, 0
	MOVWF      getVRMS_vrmsreal_L0+2
	MOVF       R0+3, 0
	MOVWF      getVRMS_vrmsreal_L0+3
;Slave_OA.c,384 :: 		if(vrmsreal > 400 || vrmsreal < 35){
	MOVF       R0+0, 0
	MOVWF      R4+0
	MOVF       R0+1, 0
	MOVWF      R4+1
	MOVF       R0+2, 0
	MOVWF      R4+2
	MOVF       R0+3, 0
	MOVWF      R4+3
	MOVLW      0
	MOVWF      R0+0
	MOVLW      0
	MOVWF      R0+1
	MOVLW      72
	MOVWF      R0+2
	MOVLW      135
	MOVWF      R0+3
	CALL       _Compare_Double+0
	MOVLW      1
	BTFSC      STATUS+0, 0
	MOVLW      0
	MOVWF      R0+0
	MOVF       R0+0, 0
	BTFSS      STATUS+0, 2
	GOTO       L__getVRMS103
	MOVLW      0
	MOVWF      R4+0
	MOVLW      0
	MOVWF      R4+1
	MOVLW      12
	MOVWF      R4+2
	MOVLW      132
	MOVWF      R4+3
	MOVF       getVRMS_vrmsreal_L0+0, 0
	MOVWF      R0+0
	MOVF       getVRMS_vrmsreal_L0+1, 0
	MOVWF      R0+1
	MOVF       getVRMS_vrmsreal_L0+2, 0
	MOVWF      R0+2
	MOVF       getVRMS_vrmsreal_L0+3, 0
	MOVWF      R0+3
	CALL       _Compare_Double+0
	MOVLW      1
	BTFSC      STATUS+0, 0
	MOVLW      0
	MOVWF      R0+0
	MOVF       R0+0, 0
	BTFSS      STATUS+0, 2
	GOTO       L__getVRMS103
	GOTO       L_getVRMS64
L__getVRMS103:
;Slave_OA.c,385 :: 		vrmsreal = 0;
	CLRF       getVRMS_vrmsreal_L0+0
	CLRF       getVRMS_vrmsreal_L0+1
	CLRF       getVRMS_vrmsreal_L0+2
	CLRF       getVRMS_vrmsreal_L0+3
;Slave_OA.c,386 :: 		}
L_getVRMS64:
;Slave_OA.c,387 :: 		return vrmsreal;
	MOVF       getVRMS_vrmsreal_L0+0, 0
	MOVWF      R0+0
	MOVF       getVRMS_vrmsreal_L0+1, 0
	MOVWF      R0+1
	MOVF       getVRMS_vrmsreal_L0+2, 0
	MOVWF      R0+2
	MOVF       getVRMS_vrmsreal_L0+3, 0
	MOVWF      R0+3
;Slave_OA.c,388 :: 		}
L_end_getVRMS:
	RETURN
; end of _getVRMS

_getIRMS:

;Slave_OA.c,392 :: 		float getIRMS(void)
;Slave_OA.c,397 :: 		totali = 0;
	CLRF       getIRMS_totali_L0+0
	CLRF       getIRMS_totali_L0+1
	CLRF       getIRMS_totali_L0+2
	CLRF       getIRMS_totali_L0+3
;Slave_OA.c,398 :: 		j = 0;
	CLRF       getIRMS_j_L0+0
	CLRF       getIRMS_j_L0+1
;Slave_OA.c,399 :: 		Write_ADE7753(IRQEN,0x0010,2);
	MOVLW      10
	MOVWF      FARG_Write_ADE7753_add+0
	MOVLW      16
	MOVWF      FARG_Write_ADE7753_write_buffer+0
	CLRF       FARG_Write_ADE7753_write_buffer+1
	CLRF       FARG_Write_ADE7753_write_buffer+2
	CLRF       FARG_Write_ADE7753_write_buffer+3
	MOVLW      2
	MOVWF      FARG_Write_ADE7753_bytes_to_write+0
	MOVLW      0
	MOVWF      FARG_Write_ADE7753_bytes_to_write+1
	CALL       _Write_ADE7753+0
;Slave_OA.c,400 :: 		for(i=0;i<10;i++)
	CLRF       getIRMS_i_L0+0
	CLRF       getIRMS_i_L0+1
L_getIRMS65:
	MOVLW      128
	XORWF      getIRMS_i_L0+1, 0
	MOVWF      R0+0
	MOVLW      128
	SUBWF      R0+0, 0
	BTFSS      STATUS+0, 2
	GOTO       L__getIRMS134
	MOVLW      10
	SUBWF      getIRMS_i_L0+0, 0
L__getIRMS134:
	BTFSC      STATUS+0, 0
	GOTO       L_getIRMS66
;Slave_OA.c,402 :: 		getresetInterruptStatus();
	CALL       _getresetInterruptStatus+0
;Slave_OA.c,403 :: 		while(! (getInterruptStatus() & ZX)){
L_getIRMS68:
	CALL       _getInterruptStatus+0
	BTFSC      R0+0, 4
	GOTO       L_getIRMS69
;Slave_OA.c,404 :: 		j++;
	INCF       getIRMS_j_L0+0, 1
	BTFSC      STATUS+0, 2
	INCF       getIRMS_j_L0+1, 1
;Slave_OA.c,405 :: 		if(j>100){
	MOVLW      128
	MOVWF      R0+0
	MOVLW      128
	XORWF      getIRMS_j_L0+1, 0
	SUBWF      R0+0, 0
	BTFSS      STATUS+0, 2
	GOTO       L__getIRMS135
	MOVF       getIRMS_j_L0+0, 0
	SUBLW      100
L__getIRMS135:
	BTFSC      STATUS+0, 0
	GOTO       L_getIRMS70
;Slave_OA.c,406 :: 		j=0;
	CLRF       getIRMS_j_L0+0
	CLRF       getIRMS_j_L0+1
;Slave_OA.c,407 :: 		break;
	GOTO       L_getIRMS69
;Slave_OA.c,408 :: 		}
L_getIRMS70:
;Slave_OA.c,409 :: 		}
	GOTO       L_getIRMS68
L_getIRMS69:
;Slave_OA.c,410 :: 		outputADE=Read_ADE7753(IRMS,3);
	MOVLW      22
	MOVWF      FARG_Read_ADE7753_add+0
	MOVLW      3
	MOVWF      FARG_Read_ADE7753_bytes_to_read+0
	CALL       _Read_ADE7753+0
	MOVF       R0+0, 0
	MOVWF      _outputADE+0
	MOVF       R0+1, 0
	MOVWF      _outputADE+1
	MOVF       R0+2, 0
	MOVWF      _outputADE+2
	MOVF       R0+3, 0
	MOVWF      _outputADE+3
;Slave_OA.c,411 :: 		Delay_ms(20);
	MOVLW      130
	MOVWF      R12+0
	MOVLW      221
	MOVWF      R13+0
L_getIRMS71:
	DECFSZ     R13+0, 1
	GOTO       L_getIRMS71
	DECFSZ     R12+0, 1
	GOTO       L_getIRMS71
	NOP
	NOP
;Slave_OA.c,412 :: 		totali=totali+outputADE;
	MOVF       _outputADE+0, 0
	ADDWF      getIRMS_totali_L0+0, 1
	MOVF       _outputADE+1, 0
	BTFSC      STATUS+0, 0
	INCFSZ     _outputADE+1, 0
	ADDWF      getIRMS_totali_L0+1, 1
	MOVF       _outputADE+2, 0
	BTFSC      STATUS+0, 0
	INCFSZ     _outputADE+2, 0
	ADDWF      getIRMS_totali_L0+2, 1
	MOVF       _outputADE+3, 0
	BTFSC      STATUS+0, 0
	INCFSZ     _outputADE+3, 0
	ADDWF      getIRMS_totali_L0+3, 1
;Slave_OA.c,413 :: 		Delay_ms(25);
	MOVLW      163
	MOVWF      R12+0
	MOVLW      85
	MOVWF      R13+0
L_getIRMS72:
	DECFSZ     R13+0, 1
	GOTO       L_getIRMS72
	DECFSZ     R12+0, 1
	GOTO       L_getIRMS72
;Slave_OA.c,400 :: 		for(i=0;i<10;i++)
	INCF       getIRMS_i_L0+0, 1
	BTFSC      STATUS+0, 2
	INCF       getIRMS_i_L0+1, 1
;Slave_OA.c,414 :: 		}
	GOTO       L_getIRMS65
L_getIRMS66:
;Slave_OA.c,415 :: 		getresetInterruptStatus();
	CALL       _getresetInterruptStatus+0
;Slave_OA.c,416 :: 		irmsraw = totali/10;
	MOVLW      10
	MOVWF      R4+0
	CLRF       R4+1
	CLRF       R4+2
	CLRF       R4+3
	MOVF       getIRMS_totali_L0+0, 0
	MOVWF      R0+0
	MOVF       getIRMS_totali_L0+1, 0
	MOVWF      R0+1
	MOVF       getIRMS_totali_L0+2, 0
	MOVWF      R0+2
	MOVF       getIRMS_totali_L0+3, 0
	MOVWF      R0+3
	CALL       _Div_32x32_S+0
;Slave_OA.c,417 :: 		irmsraw = irmsraw & 0xFFFFFF;
	MOVLW      255
	ANDWF      R0+0, 1
	MOVLW      255
	ANDWF      R0+1, 1
	MOVLW      255
	ANDWF      R0+2, 1
	MOVLW      0
	ANDWF      R0+3, 1
;Slave_OA.c,418 :: 		irmsreal = (float)irmsraw;
	CALL       _longint2double+0
	MOVF       R0+0, 0
	MOVWF      getIRMS_irmsreal_L0+0
	MOVF       R0+1, 0
	MOVWF      getIRMS_irmsreal_L0+1
	MOVF       R0+2, 0
	MOVWF      getIRMS_irmsreal_L0+2
	MOVF       R0+3, 0
	MOVWF      getIRMS_irmsreal_L0+3
;Slave_OA.c,419 :: 		irmsreal = irmsreal * 0.00003714;
	MOVLW      197
	MOVWF      R4+0
	MOVLW      198
	MOVWF      R4+1
	MOVLW      27
	MOVWF      R4+2
	MOVLW      112
	MOVWF      R4+3
	CALL       _Mul_32x32_FP+0
	MOVF       R0+0, 0
	MOVWF      getIRMS_irmsreal_L0+0
	MOVF       R0+1, 0
	MOVWF      getIRMS_irmsreal_L0+1
	MOVF       R0+2, 0
	MOVWF      getIRMS_irmsreal_L0+2
	MOVF       R0+3, 0
	MOVWF      getIRMS_irmsreal_L0+3
;Slave_OA.c,420 :: 		irmsreal = irmsreal- 288.1919;
	MOVLW      144
	MOVWF      R4+0
	MOVLW      24
	MOVWF      R4+1
	MOVLW      16
	MOVWF      R4+2
	MOVLW      135
	MOVWF      R4+3
	CALL       _Sub_32x32_FP+0
	MOVF       R0+0, 0
	MOVWF      getIRMS_irmsreal_L0+0
	MOVF       R0+1, 0
	MOVWF      getIRMS_irmsreal_L0+1
	MOVF       R0+2, 0
	MOVWF      getIRMS_irmsreal_L0+2
	MOVF       R0+3, 0
	MOVWF      getIRMS_irmsreal_L0+3
;Slave_OA.c,422 :: 		if(irmsreal > 40 || irmsreal < 0){
	MOVF       R0+0, 0
	MOVWF      R4+0
	MOVF       R0+1, 0
	MOVWF      R4+1
	MOVF       R0+2, 0
	MOVWF      R4+2
	MOVF       R0+3, 0
	MOVWF      R4+3
	MOVLW      0
	MOVWF      R0+0
	MOVLW      0
	MOVWF      R0+1
	MOVLW      32
	MOVWF      R0+2
	MOVLW      132
	MOVWF      R0+3
	CALL       _Compare_Double+0
	MOVLW      1
	BTFSC      STATUS+0, 0
	MOVLW      0
	MOVWF      R0+0
	MOVF       R0+0, 0
	BTFSS      STATUS+0, 2
	GOTO       L__getIRMS104
	CLRF       R4+0
	CLRF       R4+1
	CLRF       R4+2
	CLRF       R4+3
	MOVF       getIRMS_irmsreal_L0+0, 0
	MOVWF      R0+0
	MOVF       getIRMS_irmsreal_L0+1, 0
	MOVWF      R0+1
	MOVF       getIRMS_irmsreal_L0+2, 0
	MOVWF      R0+2
	MOVF       getIRMS_irmsreal_L0+3, 0
	MOVWF      R0+3
	CALL       _Compare_Double+0
	MOVLW      1
	BTFSC      STATUS+0, 0
	MOVLW      0
	MOVWF      R0+0
	MOVF       R0+0, 0
	BTFSS      STATUS+0, 2
	GOTO       L__getIRMS104
	GOTO       L_getIRMS75
L__getIRMS104:
;Slave_OA.c,423 :: 		irmsreal = 0;
	CLRF       getIRMS_irmsreal_L0+0
	CLRF       getIRMS_irmsreal_L0+1
	CLRF       getIRMS_irmsreal_L0+2
	CLRF       getIRMS_irmsreal_L0+3
;Slave_OA.c,424 :: 		}
L_getIRMS75:
;Slave_OA.c,425 :: 		return irmsreal;
	MOVF       getIRMS_irmsreal_L0+0, 0
	MOVWF      R0+0
	MOVF       getIRMS_irmsreal_L0+1, 0
	MOVWF      R0+1
	MOVF       getIRMS_irmsreal_L0+2, 0
	MOVWF      R0+2
	MOVF       getIRMS_irmsreal_L0+3, 0
	MOVWF      R0+3
;Slave_OA.c,426 :: 		}
L_end_getIRMS:
	RETURN
; end of _getIRMS

_getAPOWER:

;Slave_OA.c,428 :: 		float getAPOWER(void)
;Slave_OA.c,434 :: 		apreal =0;
	CLRF       getAPOWER_apreal_L0+0
	CLRF       getAPOWER_apreal_L0+1
	CLRF       getAPOWER_apreal_L0+2
	CLRF       getAPOWER_apreal_L0+3
;Slave_OA.c,435 :: 		Write_ADE7753(LINECYC,100,2);
	MOVLW      28
	MOVWF      FARG_Write_ADE7753_add+0
	MOVLW      100
	MOVWF      FARG_Write_ADE7753_write_buffer+0
	CLRF       FARG_Write_ADE7753_write_buffer+1
	CLRF       FARG_Write_ADE7753_write_buffer+2
	CLRF       FARG_Write_ADE7753_write_buffer+3
	MOVLW      2
	MOVWF      FARG_Write_ADE7753_bytes_to_write+0
	MOVLW      0
	MOVWF      FARG_Write_ADE7753_bytes_to_write+1
	CALL       _Write_ADE7753+0
;Slave_OA.c,436 :: 		Delay_ms(500);
	MOVLW      13
	MOVWF      R11+0
	MOVLW      175
	MOVWF      R12+0
	MOVLW      182
	MOVWF      R13+0
L_getAPOWER76:
	DECFSZ     R13+0, 1
	GOTO       L_getAPOWER76
	DECFSZ     R12+0, 1
	GOTO       L_getAPOWER76
	DECFSZ     R11+0, 1
	GOTO       L_getAPOWER76
	NOP
;Slave_OA.c,437 :: 		Write_ADE7753(MODE,0x0080,2);
	MOVLW      9
	MOVWF      FARG_Write_ADE7753_add+0
	MOVLW      128
	MOVWF      FARG_Write_ADE7753_write_buffer+0
	CLRF       FARG_Write_ADE7753_write_buffer+1
	CLRF       FARG_Write_ADE7753_write_buffer+2
	CLRF       FARG_Write_ADE7753_write_buffer+3
	MOVLW      2
	MOVWF      FARG_Write_ADE7753_bytes_to_write+0
	MOVLW      0
	MOVWF      FARG_Write_ADE7753_bytes_to_write+1
	CALL       _Write_ADE7753+0
;Slave_OA.c,438 :: 		Delay_ms(500);
	MOVLW      13
	MOVWF      R11+0
	MOVLW      175
	MOVWF      R12+0
	MOVLW      182
	MOVWF      R13+0
L_getAPOWER77:
	DECFSZ     R13+0, 1
	GOTO       L_getAPOWER77
	DECFSZ     R12+0, 1
	GOTO       L_getAPOWER77
	DECFSZ     R11+0, 1
	GOTO       L_getAPOWER77
	NOP
;Slave_OA.c,439 :: 		Write_ADE7753(IRQEN,0x0004,2);
	MOVLW      10
	MOVWF      FARG_Write_ADE7753_add+0
	MOVLW      4
	MOVWF      FARG_Write_ADE7753_write_buffer+0
	CLRF       FARG_Write_ADE7753_write_buffer+1
	CLRF       FARG_Write_ADE7753_write_buffer+2
	CLRF       FARG_Write_ADE7753_write_buffer+3
	MOVLW      2
	MOVWF      FARG_Write_ADE7753_bytes_to_write+0
	MOVLW      0
	MOVWF      FARG_Write_ADE7753_bytes_to_write+1
	CALL       _Write_ADE7753+0
;Slave_OA.c,440 :: 		Delay_ms(500);
	MOVLW      13
	MOVWF      R11+0
	MOVLW      175
	MOVWF      R12+0
	MOVLW      182
	MOVWF      R13+0
L_getAPOWER78:
	DECFSZ     R13+0, 1
	GOTO       L_getAPOWER78
	DECFSZ     R12+0, 1
	GOTO       L_getAPOWER78
	DECFSZ     R11+0, 1
	GOTO       L_getAPOWER78
	NOP
;Slave_OA.c,441 :: 		getresetInterruptStatus();
	CALL       _getresetInterruptStatus+0
;Slave_OA.c,442 :: 		while(! (getInterruptStatus() & CYCEND)){
L_getAPOWER79:
	CALL       _getInterruptStatus+0
	BTFSC      R0+0, 2
	GOTO       L_getAPOWER80
;Slave_OA.c,443 :: 		j++;
	INCF       getAPOWER_j_L0+0, 1
	BTFSC      STATUS+0, 2
	INCF       getAPOWER_j_L0+1, 1
;Slave_OA.c,444 :: 		if(j>200){
	MOVLW      128
	MOVWF      R0+0
	MOVLW      128
	XORWF      getAPOWER_j_L0+1, 0
	SUBWF      R0+0, 0
	BTFSS      STATUS+0, 2
	GOTO       L__getAPOWER137
	MOVF       getAPOWER_j_L0+0, 0
	SUBLW      200
L__getAPOWER137:
	BTFSC      STATUS+0, 0
	GOTO       L_getAPOWER81
;Slave_OA.c,445 :: 		j=0;
	CLRF       getAPOWER_j_L0+0
	CLRF       getAPOWER_j_L0+1
;Slave_OA.c,446 :: 		break;
	GOTO       L_getAPOWER80
;Slave_OA.c,447 :: 		}
L_getAPOWER81:
;Slave_OA.c,448 :: 		}
	GOTO       L_getAPOWER79
L_getAPOWER80:
;Slave_OA.c,450 :: 		getresetInterruptStatus();
	CALL       _getresetInterruptStatus+0
;Slave_OA.c,451 :: 		while(! (getInterruptStatus() & CYCEND)){
L_getAPOWER82:
	CALL       _getInterruptStatus+0
	BTFSC      R0+0, 2
	GOTO       L_getAPOWER83
;Slave_OA.c,452 :: 		j++;
	INCF       getAPOWER_j_L0+0, 1
	BTFSC      STATUS+0, 2
	INCF       getAPOWER_j_L0+1, 1
;Slave_OA.c,453 :: 		if(j>200){
	MOVLW      128
	MOVWF      R0+0
	MOVLW      128
	XORWF      getAPOWER_j_L0+1, 0
	SUBWF      R0+0, 0
	BTFSS      STATUS+0, 2
	GOTO       L__getAPOWER138
	MOVF       getAPOWER_j_L0+0, 0
	SUBLW      200
L__getAPOWER138:
	BTFSC      STATUS+0, 0
	GOTO       L_getAPOWER84
;Slave_OA.c,454 :: 		j=0;
	CLRF       getAPOWER_j_L0+0
	CLRF       getAPOWER_j_L0+1
;Slave_OA.c,455 :: 		break;
	GOTO       L_getAPOWER83
;Slave_OA.c,456 :: 		}
L_getAPOWER84:
;Slave_OA.c,457 :: 		}
	GOTO       L_getAPOWER82
L_getAPOWER83:
;Slave_OA.c,458 :: 		getresetInterruptStatus();
	CALL       _getresetInterruptStatus+0
;Slave_OA.c,459 :: 		outputADE=Read_ADE7753(LAENERGY,3);
	MOVLW      4
	MOVWF      FARG_Read_ADE7753_add+0
	MOVLW      3
	MOVWF      FARG_Read_ADE7753_bytes_to_read+0
	CALL       _Read_ADE7753+0
	MOVF       R0+0, 0
	MOVWF      _outputADE+0
	MOVF       R0+1, 0
	MOVWF      _outputADE+1
	MOVF       R0+2, 0
	MOVWF      _outputADE+2
	MOVF       R0+3, 0
	MOVWF      _outputADE+3
;Slave_OA.c,460 :: 		Delay_ms(500);
	MOVLW      13
	MOVWF      R11+0
	MOVLW      175
	MOVWF      R12+0
	MOVLW      182
	MOVWF      R13+0
L_getAPOWER85:
	DECFSZ     R13+0, 1
	GOTO       L_getAPOWER85
	DECFSZ     R12+0, 1
	GOTO       L_getAPOWER85
	DECFSZ     R11+0, 1
	GOTO       L_getAPOWER85
	NOP
;Slave_OA.c,462 :: 		apraw = apraw & 0xFFFF;
	MOVLW      255
	ANDWF      _outputADE+0, 0
	MOVWF      R0+0
	MOVLW      255
	ANDWF      _outputADE+1, 0
	MOVWF      R0+1
	MOVF       _outputADE+2, 0
	MOVWF      R0+2
	MOVF       _outputADE+3, 0
	MOVWF      R0+3
	MOVLW      0
	ANDWF      R0+2, 1
	ANDWF      R0+3, 1
;Slave_OA.c,464 :: 		apreal = (float)apraw;
	CALL       _longint2double+0
	MOVF       R0+0, 0
	MOVWF      getAPOWER_apreal_L0+0
	MOVF       R0+1, 0
	MOVWF      getAPOWER_apreal_L0+1
	MOVF       R0+2, 0
	MOVWF      getAPOWER_apreal_L0+2
	MOVF       R0+3, 0
	MOVWF      getAPOWER_apreal_L0+3
;Slave_OA.c,465 :: 		apreal = apreal * 1.6425;
	MOVLW      113
	MOVWF      R4+0
	MOVLW      61
	MOVWF      R4+1
	MOVLW      82
	MOVWF      R4+2
	MOVLW      127
	MOVWF      R4+3
	CALL       _Mul_32x32_FP+0
	MOVF       R0+0, 0
	MOVWF      getAPOWER_apreal_L0+0
	MOVF       R0+1, 0
	MOVWF      getAPOWER_apreal_L0+1
	MOVF       R0+2, 0
	MOVWF      getAPOWER_apreal_L0+2
	MOVF       R0+3, 0
	MOVWF      getAPOWER_apreal_L0+3
;Slave_OA.c,466 :: 		apreal = apreal + 0.14;
	MOVLW      41
	MOVWF      R4+0
	MOVLW      92
	MOVWF      R4+1
	MOVLW      15
	MOVWF      R4+2
	MOVLW      124
	MOVWF      R4+3
	CALL       _Add_32x32_FP+0
	MOVF       R0+0, 0
	MOVWF      getAPOWER_apreal_L0+0
	MOVF       R0+1, 0
	MOVWF      getAPOWER_apreal_L0+1
	MOVF       R0+2, 0
	MOVWF      getAPOWER_apreal_L0+2
	MOVF       R0+3, 0
	MOVWF      getAPOWER_apreal_L0+3
;Slave_OA.c,467 :: 		Write_ADE7753(LINECYC,0xFFFF,2);
	MOVLW      28
	MOVWF      FARG_Write_ADE7753_add+0
	MOVLW      255
	MOVWF      FARG_Write_ADE7753_write_buffer+0
	MOVLW      255
	MOVWF      FARG_Write_ADE7753_write_buffer+1
	CLRF       FARG_Write_ADE7753_write_buffer+2
	CLRF       FARG_Write_ADE7753_write_buffer+3
	MOVLW      2
	MOVWF      FARG_Write_ADE7753_bytes_to_write+0
	MOVLW      0
	MOVWF      FARG_Write_ADE7753_bytes_to_write+1
	CALL       _Write_ADE7753+0
;Slave_OA.c,468 :: 		Delay_ms(500);
	MOVLW      13
	MOVWF      R11+0
	MOVLW      175
	MOVWF      R12+0
	MOVLW      182
	MOVWF      R13+0
L_getAPOWER86:
	DECFSZ     R13+0, 1
	GOTO       L_getAPOWER86
	DECFSZ     R12+0, 1
	GOTO       L_getAPOWER86
	DECFSZ     R11+0, 1
	GOTO       L_getAPOWER86
	NOP
;Slave_OA.c,469 :: 		if(apreal < 8 || apreal > 2000){
	MOVLW      0
	MOVWF      R4+0
	MOVLW      0
	MOVWF      R4+1
	MOVLW      0
	MOVWF      R4+2
	MOVLW      130
	MOVWF      R4+3
	MOVF       getAPOWER_apreal_L0+0, 0
	MOVWF      R0+0
	MOVF       getAPOWER_apreal_L0+1, 0
	MOVWF      R0+1
	MOVF       getAPOWER_apreal_L0+2, 0
	MOVWF      R0+2
	MOVF       getAPOWER_apreal_L0+3, 0
	MOVWF      R0+3
	CALL       _Compare_Double+0
	MOVLW      1
	BTFSC      STATUS+0, 0
	MOVLW      0
	MOVWF      R0+0
	MOVF       R0+0, 0
	BTFSS      STATUS+0, 2
	GOTO       L__getAPOWER105
	MOVF       getAPOWER_apreal_L0+0, 0
	MOVWF      R4+0
	MOVF       getAPOWER_apreal_L0+1, 0
	MOVWF      R4+1
	MOVF       getAPOWER_apreal_L0+2, 0
	MOVWF      R4+2
	MOVF       getAPOWER_apreal_L0+3, 0
	MOVWF      R4+3
	MOVLW      0
	MOVWF      R0+0
	MOVLW      0
	MOVWF      R0+1
	MOVLW      122
	MOVWF      R0+2
	MOVLW      137
	MOVWF      R0+3
	CALL       _Compare_Double+0
	MOVLW      1
	BTFSC      STATUS+0, 0
	MOVLW      0
	MOVWF      R0+0
	MOVF       R0+0, 0
	BTFSS      STATUS+0, 2
	GOTO       L__getAPOWER105
	GOTO       L_getAPOWER89
L__getAPOWER105:
;Slave_OA.c,470 :: 		apreal = 0;
	CLRF       getAPOWER_apreal_L0+0
	CLRF       getAPOWER_apreal_L0+1
	CLRF       getAPOWER_apreal_L0+2
	CLRF       getAPOWER_apreal_L0+3
;Slave_OA.c,471 :: 		}
L_getAPOWER89:
;Slave_OA.c,472 :: 		return apreal;
	MOVF       getAPOWER_apreal_L0+0, 0
	MOVWF      R0+0
	MOVF       getAPOWER_apreal_L0+1, 0
	MOVWF      R0+1
	MOVF       getAPOWER_apreal_L0+2, 0
	MOVWF      R0+2
	MOVF       getAPOWER_apreal_L0+3, 0
	MOVWF      R0+3
;Slave_OA.c,473 :: 		}
L_end_getAPOWER:
	RETURN
; end of _getAPOWER

_Test:

;Slave_OA.c,478 :: 		void Test (void)
;Slave_OA.c,480 :: 		Write_ADE7753(LINECYC,0xABEF,2);
	MOVLW      28
	MOVWF      FARG_Write_ADE7753_add+0
	MOVLW      239
	MOVWF      FARG_Write_ADE7753_write_buffer+0
	MOVLW      171
	MOVWF      FARG_Write_ADE7753_write_buffer+1
	CLRF       FARG_Write_ADE7753_write_buffer+2
	CLRF       FARG_Write_ADE7753_write_buffer+3
	MOVLW      2
	MOVWF      FARG_Write_ADE7753_bytes_to_write+0
	MOVLW      0
	MOVWF      FARG_Write_ADE7753_bytes_to_write+1
	CALL       _Write_ADE7753+0
;Slave_OA.c,481 :: 		outputADE = Read_ADE7753(LINECYC,2);
	MOVLW      28
	MOVWF      FARG_Read_ADE7753_add+0
	MOVLW      2
	MOVWF      FARG_Read_ADE7753_bytes_to_read+0
	CALL       _Read_ADE7753+0
	MOVF       R0+0, 0
	MOVWF      _outputADE+0
	MOVF       R0+1, 0
	MOVWF      _outputADE+1
	MOVF       R0+2, 0
	MOVWF      _outputADE+2
	MOVF       R0+3, 0
	MOVWF      _outputADE+3
;Slave_OA.c,482 :: 		HienthiUART(outputADE,2);
	MOVF       R0+0, 0
	MOVWF      FARG_HienthiUART_outputADE+0
	MOVF       R0+1, 0
	MOVWF      FARG_HienthiUART_outputADE+1
	MOVF       R0+2, 0
	MOVWF      FARG_HienthiUART_outputADE+2
	MOVF       R0+3, 0
	MOVWF      FARG_HienthiUART_outputADE+3
	MOVLW      2
	MOVWF      FARG_HienthiUART_bytes_to_write+0
	MOVLW      0
	MOVWF      FARG_HienthiUART_bytes_to_write+1
	CALL       _HienthiUART+0
;Slave_OA.c,483 :: 		}
L_end_Test:
	RETURN
; end of _Test

_RS485_send:

;Slave_OA.c,485 :: 		void RS485_send (char dat[])
;Slave_OA.c,488 :: 		PORTB.RB3 =1;
	BSF        PORTB+0, 3
;Slave_OA.c,489 :: 		Delay_ms(100);
	MOVLW      3
	MOVWF      R11+0
	MOVLW      138
	MOVWF      R12+0
	MOVLW      85
	MOVWF      R13+0
L_RS485_send90:
	DECFSZ     R13+0, 1
	GOTO       L_RS485_send90
	DECFSZ     R12+0, 1
	GOTO       L_RS485_send90
	DECFSZ     R11+0, 1
	GOTO       L_RS485_send90
	NOP
	NOP
;Slave_OA.c,490 :: 		for (i=0; i<=10;i++){
	CLRF       RS485_send_i_L0+0
	CLRF       RS485_send_i_L0+1
L_RS485_send91:
	MOVLW      128
	MOVWF      R0+0
	MOVLW      128
	XORWF      RS485_send_i_L0+1, 0
	SUBWF      R0+0, 0
	BTFSS      STATUS+0, 2
	GOTO       L__RS485_send141
	MOVF       RS485_send_i_L0+0, 0
	SUBLW      10
L__RS485_send141:
	BTFSS      STATUS+0, 0
	GOTO       L_RS485_send92
;Slave_OA.c,491 :: 		while(UART1_Tx_Idle()==0);
L_RS485_send94:
	CALL       _UART1_Tx_Idle+0
	MOVF       R0+0, 0
	XORLW      0
	BTFSS      STATUS+0, 2
	GOTO       L_RS485_send95
	GOTO       L_RS485_send94
L_RS485_send95:
;Slave_OA.c,492 :: 		UART1_Write(dat[i]);
	MOVF       RS485_send_i_L0+0, 0
	ADDWF      FARG_RS485_send_dat+0, 0
	MOVWF      FSR
	MOVF       INDF+0, 0
	MOVWF      FARG_UART1_Write_data_+0
	CALL       _UART1_Write+0
;Slave_OA.c,490 :: 		for (i=0; i<=10;i++){
	INCF       RS485_send_i_L0+0, 1
	BTFSC      STATUS+0, 2
	INCF       RS485_send_i_L0+1, 1
;Slave_OA.c,493 :: 		}
	GOTO       L_RS485_send91
L_RS485_send92:
;Slave_OA.c,494 :: 		Delay_ms(10);
	MOVLW      65
	MOVWF      R12+0
	MOVLW      238
	MOVWF      R13+0
L_RS485_send96:
	DECFSZ     R13+0, 1
	GOTO       L_RS485_send96
	DECFSZ     R12+0, 1
	GOTO       L_RS485_send96
	NOP
;Slave_OA.c,495 :: 		PORTB.RB3 =0;
	BCF        PORTB+0, 3
;Slave_OA.c,496 :: 		}
L_end_RS485_send:
	RETURN
; end of _RS485_send
