
_main:

;Slave_OA.c,70 :: 		void main()
;Slave_OA.c,72 :: 		voltage = 0;
	CLRF       _voltage+0
	CLRF       _voltage+1
	CLRF       _voltage+2
	CLRF       _voltage+3
;Slave_OA.c,73 :: 		ampe = 0;
	CLRF       _ampe+0
	CLRF       _ampe+1
	CLRF       _ampe+2
	CLRF       _ampe+3
;Slave_OA.c,74 :: 		activepower = 0;
	CLRF       _activepower+0
	CLRF       _activepower+1
	CLRF       _activepower+2
	CLRF       _activepower+3
;Slave_OA.c,75 :: 		TRISC.B0 = 0;
	BCF        TRISC+0, 0
;Slave_OA.c,76 :: 		PORTC.B0 = 1;
	BSF        PORTC+0, 0
;Slave_OA.c,77 :: 		UART1_Init(9600);
	MOVLW      129
	MOVWF      SPBRG+0
	BSF        TXSTA+0, 2
	CALL       _UART1_Init+0
;Slave_OA.c,78 :: 		Delay_ms(200);
	MOVLW      6
	MOVWF      R11+0
	MOVLW      19
	MOVWF      R12+0
	MOVLW      173
	MOVWF      R13+0
L_main0:
	DECFSZ     R13+0, 1
	GOTO       L_main0
	DECFSZ     R12+0, 1
	GOTO       L_main0
	DECFSZ     R11+0, 1
	GOTO       L_main0
	NOP
	NOP
;Slave_OA.c,79 :: 		SPI1_Init_Advanced(_SPI_MASTER_OSC_DIV64, _SPI_DATA_SAMPLE_MIDDLE, _SPI_CLK_IDLE_LOW, _SPI_HIGH_2_LOW);
	MOVLW      2
	MOVWF      FARG_SPI1_Init_Advanced_master+0
	CLRF       FARG_SPI1_Init_Advanced_data_sample+0
	CLRF       FARG_SPI1_Init_Advanced_clock_idle+0
	CLRF       FARG_SPI1_Init_Advanced_transmit_edge+0
	CALL       _SPI1_Init_Advanced+0
;Slave_OA.c,80 :: 		Delay_ms(200);
	MOVLW      6
	MOVWF      R11+0
	MOVLW      19
	MOVWF      R12+0
	MOVLW      173
	MOVWF      R13+0
L_main1:
	DECFSZ     R13+0, 1
	GOTO       L_main1
	DECFSZ     R12+0, 1
	GOTO       L_main1
	DECFSZ     R11+0, 1
	GOTO       L_main1
	NOP
	NOP
;Slave_OA.c,82 :: 		Write_ADE7753(GAIN,0x0,1);
	MOVLW      15
	MOVWF      FARG_Write_ADE7753_add+0
	CLRF       FARG_Write_ADE7753_write_buffer+0
	CLRF       FARG_Write_ADE7753_write_buffer+1
	CLRF       FARG_Write_ADE7753_write_buffer+2
	CLRF       FARG_Write_ADE7753_write_buffer+3
	MOVLW      1
	MOVWF      FARG_Write_ADE7753_bytes_to_write+0
	MOVLW      0
	MOVWF      FARG_Write_ADE7753_bytes_to_write+1
	CALL       _Write_ADE7753+0
;Slave_OA.c,83 :: 		Write_ADE7753(MODE,0x008C,2);                      //0b0000000010001100
	MOVLW      9
	MOVWF      FARG_Write_ADE7753_add+0
	MOVLW      140
	MOVWF      FARG_Write_ADE7753_write_buffer+0
	CLRF       FARG_Write_ADE7753_write_buffer+1
	CLRF       FARG_Write_ADE7753_write_buffer+2
	CLRF       FARG_Write_ADE7753_write_buffer+3
	MOVLW      2
	MOVWF      FARG_Write_ADE7753_bytes_to_write+0
	MOVLW      0
	MOVWF      FARG_Write_ADE7753_bytes_to_write+1
	CALL       _Write_ADE7753+0
;Slave_OA.c,88 :: 		Delay_ms(200);
	MOVLW      6
	MOVWF      R11+0
	MOVLW      19
	MOVWF      R12+0
	MOVLW      173
	MOVWF      R13+0
L_main2:
	DECFSZ     R13+0, 1
	GOTO       L_main2
	DECFSZ     R12+0, 1
	GOTO       L_main2
	DECFSZ     R11+0, 1
	GOTO       L_main2
	NOP
	NOP
;Slave_OA.c,90 :: 		while(1)
L_main3:
;Slave_OA.c,93 :: 		UART1_Write_Text("\nDien ap: ");
	MOVLW      ?lstr1_Slave_OA+0
	MOVWF      FARG_UART1_Write_Text_uart_text+0
	CALL       _UART1_Write_Text+0
;Slave_OA.c,94 :: 		voltage = getVRMS();
	CALL       _getVRMS+0
	MOVF       R0+0, 0
	MOVWF      _voltage+0
	MOVF       R0+1, 0
	MOVWF      _voltage+1
	MOVF       R0+2, 0
	MOVWF      _voltage+2
	MOVF       R0+3, 0
	MOVWF      _voltage+3
;Slave_OA.c,95 :: 		Hienthisofloat(voltage);
	MOVF       R0+0, 0
	MOVWF      FARG_Hienthisofloat_so+0
	MOVF       R0+1, 0
	MOVWF      FARG_Hienthisofloat_so+1
	MOVF       R0+2, 0
	MOVWF      FARG_Hienthisofloat_so+2
	MOVF       R0+3, 0
	MOVWF      FARG_Hienthisofloat_so+3
	CALL       _Hienthisofloat+0
;Slave_OA.c,96 :: 		Delay_ms(200);
	MOVLW      6
	MOVWF      R11+0
	MOVLW      19
	MOVWF      R12+0
	MOVLW      173
	MOVWF      R13+0
L_main5:
	DECFSZ     R13+0, 1
	GOTO       L_main5
	DECFSZ     R12+0, 1
	GOTO       L_main5
	DECFSZ     R11+0, 1
	GOTO       L_main5
	NOP
	NOP
;Slave_OA.c,98 :: 		UART1_Write_Text("\nDong dien: ");
	MOVLW      ?lstr2_Slave_OA+0
	MOVWF      FARG_UART1_Write_Text_uart_text+0
	CALL       _UART1_Write_Text+0
;Slave_OA.c,99 :: 		ampe = getIRMS();
	CALL       _getIRMS+0
	MOVF       R0+0, 0
	MOVWF      _ampe+0
	MOVF       R0+1, 0
	MOVWF      _ampe+1
	MOVF       R0+2, 0
	MOVWF      _ampe+2
	MOVF       R0+3, 0
	MOVWF      _ampe+3
;Slave_OA.c,100 :: 		Hienthisofloat(ampe);
	MOVF       R0+0, 0
	MOVWF      FARG_Hienthisofloat_so+0
	MOVF       R0+1, 0
	MOVWF      FARG_Hienthisofloat_so+1
	MOVF       R0+2, 0
	MOVWF      FARG_Hienthisofloat_so+2
	MOVF       R0+3, 0
	MOVWF      FARG_Hienthisofloat_so+3
	CALL       _Hienthisofloat+0
;Slave_OA.c,101 :: 		Delay_ms(500);
	MOVLW      13
	MOVWF      R11+0
	MOVLW      175
	MOVWF      R12+0
	MOVLW      182
	MOVWF      R13+0
L_main6:
	DECFSZ     R13+0, 1
	GOTO       L_main6
	DECFSZ     R12+0, 1
	GOTO       L_main6
	DECFSZ     R11+0, 1
	GOTO       L_main6
	NOP
;Slave_OA.c,103 :: 		UART1_Write_Text("\nCong suat: ");
	MOVLW      ?lstr3_Slave_OA+0
	MOVWF      FARG_UART1_Write_Text_uart_text+0
	CALL       _UART1_Write_Text+0
;Slave_OA.c,104 :: 		activepower = getAPOWER();
	CALL       _getAPOWER+0
	MOVF       R0+0, 0
	MOVWF      _activepower+0
	MOVF       R0+1, 0
	MOVWF      _activepower+1
	MOVF       R0+2, 0
	MOVWF      _activepower+2
	MOVF       R0+3, 0
	MOVWF      _activepower+3
;Slave_OA.c,105 :: 		Hienthisofloat(activepower);
	MOVF       R0+0, 0
	MOVWF      FARG_Hienthisofloat_so+0
	MOVF       R0+1, 0
	MOVWF      FARG_Hienthisofloat_so+1
	MOVF       R0+2, 0
	MOVWF      FARG_Hienthisofloat_so+2
	MOVF       R0+3, 0
	MOVWF      FARG_Hienthisofloat_so+3
	CALL       _Hienthisofloat+0
;Slave_OA.c,106 :: 		Delay_ms(500);
	MOVLW      13
	MOVWF      R11+0
	MOVLW      175
	MOVWF      R12+0
	MOVLW      182
	MOVWF      R13+0
L_main7:
	DECFSZ     R13+0, 1
	GOTO       L_main7
	DECFSZ     R12+0, 1
	GOTO       L_main7
	DECFSZ     R11+0, 1
	GOTO       L_main7
	NOP
;Slave_OA.c,108 :: 		}
	GOTO       L_main3
;Slave_OA.c,109 :: 		}
L_end_main:
	GOTO       $+0
; end of _main

_Write_ADE7753:

;Slave_OA.c,114 :: 		void Write_ADE7753(char add, long write_buffer, int bytes_to_write)
;Slave_OA.c,120 :: 		add = add|cmd;
	MOVLW      128
	IORWF      FARG_Write_ADE7753_add+0, 0
	MOVWF      R0+0
	MOVF       R0+0, 0
	MOVWF      FARG_Write_ADE7753_add+0
;Slave_OA.c,121 :: 		CS = 0;
	BCF        PORTC+0, 0
;Slave_OA.c,122 :: 		SPI1_Write(add);
	MOVF       R0+0, 0
	MOVWF      FARG_SPI1_Write_data_+0
	CALL       _SPI1_Write+0
;Slave_OA.c,123 :: 		Delay_ms(2);
	MOVLW      13
	MOVWF      R12+0
	MOVLW      251
	MOVWF      R13+0
L_Write_ADE77538:
	DECFSZ     R13+0, 1
	GOTO       L_Write_ADE77538
	DECFSZ     R12+0, 1
	GOTO       L_Write_ADE77538
	NOP
	NOP
;Slave_OA.c,125 :: 		for (i = 0; i < bytes_to_write; i++)
	CLRF       Write_ADE7753_i_L0+0
	CLRF       Write_ADE7753_i_L0+1
L_Write_ADE77539:
	MOVLW      128
	XORWF      Write_ADE7753_i_L0+1, 0
	MOVWF      R0+0
	MOVLW      128
	XORWF      FARG_Write_ADE7753_bytes_to_write+1, 0
	SUBWF      R0+0, 0
	BTFSS      STATUS+0, 2
	GOTO       L__Write_ADE775363
	MOVF       FARG_Write_ADE7753_bytes_to_write+0, 0
	SUBWF      Write_ADE7753_i_L0+0, 0
L__Write_ADE775363:
	BTFSC      STATUS+0, 0
	GOTO       L_Write_ADE775310
;Slave_OA.c,127 :: 		this_write = (char) (write_buffer>> (8*((bytes_to_write-1)-i)));
	MOVLW      1
	SUBWF      FARG_Write_ADE7753_bytes_to_write+0, 0
	MOVWF      R0+0
	MOVLW      0
	BTFSS      STATUS+0, 0
	ADDLW      1
	SUBWF      FARG_Write_ADE7753_bytes_to_write+1, 0
	MOVWF      R0+1
	MOVF       Write_ADE7753_i_L0+0, 0
	SUBWF      R0+0, 0
	MOVWF      R3+0
	MOVF       Write_ADE7753_i_L0+1, 0
	BTFSS      STATUS+0, 0
	ADDLW      1
	SUBWF      R0+1, 0
	MOVWF      R3+1
	MOVLW      3
	MOVWF      R2+0
	MOVF       R3+0, 0
	MOVWF      R0+0
	MOVF       R3+1, 0
	MOVWF      R0+1
	MOVF       R2+0, 0
L__Write_ADE775364:
	BTFSC      STATUS+0, 2
	GOTO       L__Write_ADE775365
	RLF        R0+0, 1
	RLF        R0+1, 1
	BCF        R0+0, 0
	ADDLW      255
	GOTO       L__Write_ADE775364
L__Write_ADE775365:
	MOVF       R0+0, 0
	MOVWF      R4+0
	MOVF       FARG_Write_ADE7753_write_buffer+0, 0
	MOVWF      R0+0
	MOVF       FARG_Write_ADE7753_write_buffer+1, 0
	MOVWF      R0+1
	MOVF       FARG_Write_ADE7753_write_buffer+2, 0
	MOVWF      R0+2
	MOVF       FARG_Write_ADE7753_write_buffer+3, 0
	MOVWF      R0+3
	MOVF       R4+0, 0
L__Write_ADE775366:
	BTFSC      STATUS+0, 2
	GOTO       L__Write_ADE775367
	RRF        R0+3, 1
	RRF        R0+2, 1
	RRF        R0+1, 1
	RRF        R0+0, 1
	BCF        R0+3, 7
	BTFSC      R0+3, 6
	BSF        R0+3, 7
	ADDLW      255
	GOTO       L__Write_ADE775366
L__Write_ADE775367:
;Slave_OA.c,128 :: 		SPI1_Write(this_write);
	MOVF       R0+0, 0
	MOVWF      FARG_SPI1_Write_data_+0
	CALL       _SPI1_Write+0
;Slave_OA.c,129 :: 		Delay_ms(2);
	MOVLW      13
	MOVWF      R12+0
	MOVLW      251
	MOVWF      R13+0
L_Write_ADE775312:
	DECFSZ     R13+0, 1
	GOTO       L_Write_ADE775312
	DECFSZ     R12+0, 1
	GOTO       L_Write_ADE775312
	NOP
	NOP
;Slave_OA.c,125 :: 		for (i = 0; i < bytes_to_write; i++)
	INCF       Write_ADE7753_i_L0+0, 1
	BTFSC      STATUS+0, 2
	INCF       Write_ADE7753_i_L0+1, 1
;Slave_OA.c,130 :: 		}
	GOTO       L_Write_ADE77539
L_Write_ADE775310:
;Slave_OA.c,131 :: 		CS=1;
	BSF        PORTC+0, 0
;Slave_OA.c,132 :: 		}
L_end_Write_ADE7753:
	RETURN
; end of _Write_ADE7753

_Read_ADE7753:

;Slave_OA.c,136 :: 		long Read_ADE7753(char add, char bytes_to_read)
;Slave_OA.c,141 :: 		CS = 0;
	BCF        PORTC+0, 0
;Slave_OA.c,142 :: 		SPI1_Write(add);
	MOVF       FARG_Read_ADE7753_add+0, 0
	MOVWF      FARG_SPI1_Write_data_+0
	CALL       _SPI1_Write+0
;Slave_OA.c,143 :: 		Delay_ms(2);
	MOVLW      13
	MOVWF      R12+0
	MOVLW      251
	MOVWF      R13+0
L_Read_ADE775313:
	DECFSZ     R13+0, 1
	GOTO       L_Read_ADE775313
	DECFSZ     R12+0, 1
	GOTO       L_Read_ADE775313
	NOP
	NOP
;Slave_OA.c,144 :: 		for (i = 1; i <= bytes_to_read; i++)
	MOVLW      1
	MOVWF      Read_ADE7753_i_L0+0
	MOVLW      0
	MOVWF      Read_ADE7753_i_L0+1
L_Read_ADE775314:
	MOVLW      128
	MOVWF      R0+0
	MOVLW      128
	XORWF      Read_ADE7753_i_L0+1, 0
	SUBWF      R0+0, 0
	BTFSS      STATUS+0, 2
	GOTO       L__Read_ADE775369
	MOVF       Read_ADE7753_i_L0+0, 0
	SUBWF      FARG_Read_ADE7753_bytes_to_read+0, 0
L__Read_ADE775369:
	BTFSS      STATUS+0, 0
	GOTO       L_Read_ADE775315
;Slave_OA.c,146 :: 		reader_buf =  SPI1_Read(0x00);
	CLRF       FARG_SPI1_Read_buffer+0
	CALL       _SPI1_Read+0
	MOVF       R0+0, 0
	MOVWF      Read_ADE7753_reader_buf_L0+0
;Slave_OA.c,147 :: 		Delay_ms(2);
	MOVLW      13
	MOVWF      R12+0
	MOVLW      251
	MOVWF      R13+0
L_Read_ADE775317:
	DECFSZ     R13+0, 1
	GOTO       L_Read_ADE775317
	DECFSZ     R12+0, 1
	GOTO       L_Read_ADE775317
	NOP
	NOP
;Slave_OA.c,148 :: 		result = result | reader_buf;
	MOVF       Read_ADE7753_reader_buf_L0+0, 0
	IORWF      Read_ADE7753_result_L0+0, 1
	MOVLW      0
	IORWF      Read_ADE7753_result_L0+1, 1
	IORWF      Read_ADE7753_result_L0+2, 1
	IORWF      Read_ADE7753_result_L0+3, 1
;Slave_OA.c,149 :: 		if(i < bytes_to_read)
	MOVLW      128
	XORWF      Read_ADE7753_i_L0+1, 0
	MOVWF      R0+0
	MOVLW      128
	SUBWF      R0+0, 0
	BTFSS      STATUS+0, 2
	GOTO       L__Read_ADE775370
	MOVF       FARG_Read_ADE7753_bytes_to_read+0, 0
	SUBWF      Read_ADE7753_i_L0+0, 0
L__Read_ADE775370:
	BTFSC      STATUS+0, 0
	GOTO       L_Read_ADE775318
;Slave_OA.c,150 :: 		result = result << 8;
	MOVF       Read_ADE7753_result_L0+2, 0
	MOVWF      Read_ADE7753_result_L0+3
	MOVF       Read_ADE7753_result_L0+1, 0
	MOVWF      Read_ADE7753_result_L0+2
	MOVF       Read_ADE7753_result_L0+0, 0
	MOVWF      Read_ADE7753_result_L0+1
	CLRF       Read_ADE7753_result_L0+0
L_Read_ADE775318:
;Slave_OA.c,144 :: 		for (i = 1; i <= bytes_to_read; i++)
	INCF       Read_ADE7753_i_L0+0, 1
	BTFSC      STATUS+0, 2
	INCF       Read_ADE7753_i_L0+1, 1
;Slave_OA.c,151 :: 		}
	GOTO       L_Read_ADE775314
L_Read_ADE775315:
;Slave_OA.c,152 :: 		CS = 1;
	BSF        PORTC+0, 0
;Slave_OA.c,153 :: 		return result;
	MOVF       Read_ADE7753_result_L0+0, 0
	MOVWF      R0+0
	MOVF       Read_ADE7753_result_L0+1, 0
	MOVWF      R0+1
	MOVF       Read_ADE7753_result_L0+2, 0
	MOVWF      R0+2
	MOVF       Read_ADE7753_result_L0+3, 0
	MOVWF      R0+3
;Slave_OA.c,154 :: 		}
L_end_Read_ADE7753:
	RETURN
; end of _Read_ADE7753

_HienthiUART:

;Slave_OA.c,158 :: 		void HienthiUART (long outputADE, int bytes_to_write)
;Slave_OA.c,162 :: 		for (i = 0; i < bytes_to_write; i++)
	CLRF       HienthiUART_i_L0+0
	CLRF       HienthiUART_i_L0+1
L_HienthiUART19:
	MOVLW      128
	XORWF      HienthiUART_i_L0+1, 0
	MOVWF      R0+0
	MOVLW      128
	XORWF      FARG_HienthiUART_bytes_to_write+1, 0
	SUBWF      R0+0, 0
	BTFSS      STATUS+0, 2
	GOTO       L__HienthiUART72
	MOVF       FARG_HienthiUART_bytes_to_write+0, 0
	SUBWF      HienthiUART_i_L0+0, 0
L__HienthiUART72:
	BTFSC      STATUS+0, 0
	GOTO       L_HienthiUART20
;Slave_OA.c,164 :: 		this_write = (char) (outputADE>> (8*((bytes_to_write-1)-i)));
	MOVLW      1
	SUBWF      FARG_HienthiUART_bytes_to_write+0, 0
	MOVWF      R0+0
	MOVLW      0
	BTFSS      STATUS+0, 0
	ADDLW      1
	SUBWF      FARG_HienthiUART_bytes_to_write+1, 0
	MOVWF      R0+1
	MOVF       HienthiUART_i_L0+0, 0
	SUBWF      R0+0, 0
	MOVWF      R3+0
	MOVF       HienthiUART_i_L0+1, 0
	BTFSS      STATUS+0, 0
	ADDLW      1
	SUBWF      R0+1, 0
	MOVWF      R3+1
	MOVLW      3
	MOVWF      R2+0
	MOVF       R3+0, 0
	MOVWF      R0+0
	MOVF       R3+1, 0
	MOVWF      R0+1
	MOVF       R2+0, 0
L__HienthiUART73:
	BTFSC      STATUS+0, 2
	GOTO       L__HienthiUART74
	RLF        R0+0, 1
	RLF        R0+1, 1
	BCF        R0+0, 0
	ADDLW      255
	GOTO       L__HienthiUART73
L__HienthiUART74:
	MOVF       R0+0, 0
	MOVWF      R4+0
	MOVF       FARG_HienthiUART_outputADE+0, 0
	MOVWF      R0+0
	MOVF       FARG_HienthiUART_outputADE+1, 0
	MOVWF      R0+1
	MOVF       FARG_HienthiUART_outputADE+2, 0
	MOVWF      R0+2
	MOVF       FARG_HienthiUART_outputADE+3, 0
	MOVWF      R0+3
	MOVF       R4+0, 0
L__HienthiUART75:
	BTFSC      STATUS+0, 2
	GOTO       L__HienthiUART76
	RRF        R0+3, 1
	RRF        R0+2, 1
	RRF        R0+1, 1
	RRF        R0+0, 1
	BCF        R0+3, 7
	BTFSC      R0+3, 6
	BSF        R0+3, 7
	ADDLW      255
	GOTO       L__HienthiUART75
L__HienthiUART76:
;Slave_OA.c,165 :: 		UART1_Write(this_write);
	MOVF       R0+0, 0
	MOVWF      FARG_UART1_Write_data_+0
	CALL       _UART1_Write+0
;Slave_OA.c,162 :: 		for (i = 0; i < bytes_to_write; i++)
	INCF       HienthiUART_i_L0+0, 1
	BTFSC      STATUS+0, 2
	INCF       HienthiUART_i_L0+1, 1
;Slave_OA.c,166 :: 		}
	GOTO       L_HienthiUART19
L_HienthiUART20:
;Slave_OA.c,167 :: 		}
L_end_HienthiUART:
	RETURN
; end of _HienthiUART

_Hienthisofloat:

;Slave_OA.c,171 :: 		void Hienthisofloat (float so)
;Slave_OA.c,174 :: 		FloatToStr(so,kq);
	MOVF       FARG_Hienthisofloat_so+0, 0
	MOVWF      FARG_FloatToStr_fnum+0
	MOVF       FARG_Hienthisofloat_so+1, 0
	MOVWF      FARG_FloatToStr_fnum+1
	MOVF       FARG_Hienthisofloat_so+2, 0
	MOVWF      FARG_FloatToStr_fnum+2
	MOVF       FARG_Hienthisofloat_so+3, 0
	MOVWF      FARG_FloatToStr_fnum+3
	MOVLW      Hienthisofloat_kq_L0+0
	MOVWF      FARG_FloatToStr_str+0
	CALL       _FloatToStr+0
;Slave_OA.c,175 :: 		UART1_Write_Text(kq);
	MOVLW      Hienthisofloat_kq_L0+0
	MOVWF      FARG_UART1_Write_Text_uart_text+0
	CALL       _UART1_Write_Text+0
;Slave_OA.c,176 :: 		}
L_end_Hienthisofloat:
	RETURN
; end of _Hienthisofloat

_getresetInterruptStatus:

;Slave_OA.c,180 :: 		long getresetInterruptStatus(void){
;Slave_OA.c,181 :: 		return Read_ADE7753(RSTSTATUS,2);
	MOVLW      12
	MOVWF      FARG_Read_ADE7753_add+0
	MOVLW      2
	MOVWF      FARG_Read_ADE7753_bytes_to_read+0
	CALL       _Read_ADE7753+0
;Slave_OA.c,182 :: 		}
L_end_getresetInterruptStatus:
	RETURN
; end of _getresetInterruptStatus

_getInterruptStatus:

;Slave_OA.c,186 :: 		long getInterruptStatus(void){
;Slave_OA.c,187 :: 		return Read_ADE7753(STATUS,2);
	MOVLW      11
	MOVWF      FARG_Read_ADE7753_add+0
	MOVLW      2
	MOVWF      FARG_Read_ADE7753_bytes_to_read+0
	CALL       _Read_ADE7753+0
;Slave_OA.c,188 :: 		}
L_end_getInterruptStatus:
	RETURN
; end of _getInterruptStatus

_getVRMS:

;Slave_OA.c,192 :: 		float getVRMS (void)
;Slave_OA.c,197 :: 		totalv = 0;
	CLRF       getVRMS_totalv_L0+0
	CLRF       getVRMS_totalv_L0+1
	CLRF       getVRMS_totalv_L0+2
	CLRF       getVRMS_totalv_L0+3
;Slave_OA.c,198 :: 		j = 0;
	CLRF       getVRMS_j_L0+0
	CLRF       getVRMS_j_L0+1
;Slave_OA.c,199 :: 		Write_ADE7753(IRQEN,0x0010,2);
	MOVLW      10
	MOVWF      FARG_Write_ADE7753_add+0
	MOVLW      16
	MOVWF      FARG_Write_ADE7753_write_buffer+0
	CLRF       FARG_Write_ADE7753_write_buffer+1
	CLRF       FARG_Write_ADE7753_write_buffer+2
	CLRF       FARG_Write_ADE7753_write_buffer+3
	MOVLW      2
	MOVWF      FARG_Write_ADE7753_bytes_to_write+0
	MOVLW      0
	MOVWF      FARG_Write_ADE7753_bytes_to_write+1
	CALL       _Write_ADE7753+0
;Slave_OA.c,200 :: 		for(i=0;i<10;i++)
	CLRF       getVRMS_i_L0+0
	CLRF       getVRMS_i_L0+1
L_getVRMS22:
	MOVLW      128
	XORWF      getVRMS_i_L0+1, 0
	MOVWF      R0+0
	MOVLW      128
	SUBWF      R0+0, 0
	BTFSS      STATUS+0, 2
	GOTO       L__getVRMS81
	MOVLW      10
	SUBWF      getVRMS_i_L0+0, 0
L__getVRMS81:
	BTFSC      STATUS+0, 0
	GOTO       L_getVRMS23
;Slave_OA.c,202 :: 		getresetInterruptStatus();
	CALL       _getresetInterruptStatus+0
;Slave_OA.c,203 :: 		while(! (getInterruptStatus() & ZX)){
L_getVRMS25:
	CALL       _getInterruptStatus+0
	BTFSC      R0+0, 4
	GOTO       L_getVRMS26
;Slave_OA.c,204 :: 		j++;
	INCF       getVRMS_j_L0+0, 1
	BTFSC      STATUS+0, 2
	INCF       getVRMS_j_L0+1, 1
;Slave_OA.c,205 :: 		if(j>100){
	MOVLW      128
	MOVWF      R0+0
	MOVLW      128
	XORWF      getVRMS_j_L0+1, 0
	SUBWF      R0+0, 0
	BTFSS      STATUS+0, 2
	GOTO       L__getVRMS82
	MOVF       getVRMS_j_L0+0, 0
	SUBLW      100
L__getVRMS82:
	BTFSC      STATUS+0, 0
	GOTO       L_getVRMS27
;Slave_OA.c,206 :: 		j=0;
	CLRF       getVRMS_j_L0+0
	CLRF       getVRMS_j_L0+1
;Slave_OA.c,207 :: 		break;
	GOTO       L_getVRMS26
;Slave_OA.c,208 :: 		}
L_getVRMS27:
;Slave_OA.c,209 :: 		}
	GOTO       L_getVRMS25
L_getVRMS26:
;Slave_OA.c,210 :: 		outputADE=Read_ADE7753(VRMS,3);
	MOVLW      23
	MOVWF      FARG_Read_ADE7753_add+0
	MOVLW      3
	MOVWF      FARG_Read_ADE7753_bytes_to_read+0
	CALL       _Read_ADE7753+0
	MOVF       R0+0, 0
	MOVWF      _outputADE+0
	MOVF       R0+1, 0
	MOVWF      _outputADE+1
	MOVF       R0+2, 0
	MOVWF      _outputADE+2
	MOVF       R0+3, 0
	MOVWF      _outputADE+3
;Slave_OA.c,211 :: 		Delay_ms(20);
	MOVLW      130
	MOVWF      R12+0
	MOVLW      221
	MOVWF      R13+0
L_getVRMS28:
	DECFSZ     R13+0, 1
	GOTO       L_getVRMS28
	DECFSZ     R12+0, 1
	GOTO       L_getVRMS28
	NOP
	NOP
;Slave_OA.c,212 :: 		totalv=totalv+outputADE;
	MOVF       _outputADE+0, 0
	ADDWF      getVRMS_totalv_L0+0, 1
	MOVF       _outputADE+1, 0
	BTFSC      STATUS+0, 0
	INCFSZ     _outputADE+1, 0
	ADDWF      getVRMS_totalv_L0+1, 1
	MOVF       _outputADE+2, 0
	BTFSC      STATUS+0, 0
	INCFSZ     _outputADE+2, 0
	ADDWF      getVRMS_totalv_L0+2, 1
	MOVF       _outputADE+3, 0
	BTFSC      STATUS+0, 0
	INCFSZ     _outputADE+3, 0
	ADDWF      getVRMS_totalv_L0+3, 1
;Slave_OA.c,213 :: 		Delay_ms(25);
	MOVLW      163
	MOVWF      R12+0
	MOVLW      85
	MOVWF      R13+0
L_getVRMS29:
	DECFSZ     R13+0, 1
	GOTO       L_getVRMS29
	DECFSZ     R12+0, 1
	GOTO       L_getVRMS29
;Slave_OA.c,200 :: 		for(i=0;i<10;i++)
	INCF       getVRMS_i_L0+0, 1
	BTFSC      STATUS+0, 2
	INCF       getVRMS_i_L0+1, 1
;Slave_OA.c,214 :: 		}
	GOTO       L_getVRMS22
L_getVRMS23:
;Slave_OA.c,215 :: 		getresetInterruptStatus();
	CALL       _getresetInterruptStatus+0
;Slave_OA.c,216 :: 		vrmsraw = totalv/10;
	MOVLW      10
	MOVWF      R4+0
	CLRF       R4+1
	CLRF       R4+2
	CLRF       R4+3
	MOVF       getVRMS_totalv_L0+0, 0
	MOVWF      R0+0
	MOVF       getVRMS_totalv_L0+1, 0
	MOVWF      R0+1
	MOVF       getVRMS_totalv_L0+2, 0
	MOVWF      R0+2
	MOVF       getVRMS_totalv_L0+3, 0
	MOVWF      R0+3
	CALL       _Div_32x32_S+0
;Slave_OA.c,218 :: 		vrmsraw = vrmsraw & 0xFFFFFF;
	MOVLW      255
	ANDWF      R0+0, 1
	MOVLW      255
	ANDWF      R0+1, 1
	MOVLW      255
	ANDWF      R0+2, 1
	MOVLW      0
	ANDWF      R0+3, 1
;Slave_OA.c,220 :: 		vrmsreal = (float)vrmsraw;
	CALL       _longint2double+0
	MOVF       R0+0, 0
	MOVWF      getVRMS_vrmsreal_L0+0
	MOVF       R0+1, 0
	MOVWF      getVRMS_vrmsreal_L0+1
	MOVF       R0+2, 0
	MOVWF      getVRMS_vrmsreal_L0+2
	MOVF       R0+3, 0
	MOVWF      getVRMS_vrmsreal_L0+3
;Slave_OA.c,221 :: 		vrmsreal = vrmsreal * 0.00033834;
	MOVLW      58
	MOVWF      R4+0
	MOVLW      99
	MOVWF      R4+1
	MOVLW      49
	MOVWF      R4+2
	MOVLW      115
	MOVWF      R4+3
	CALL       _Mul_32x32_FP+0
	MOVF       R0+0, 0
	MOVWF      getVRMS_vrmsreal_L0+0
	MOVF       R0+1, 0
	MOVWF      getVRMS_vrmsreal_L0+1
	MOVF       R0+2, 0
	MOVWF      getVRMS_vrmsreal_L0+2
	MOVF       R0+3, 0
	MOVWF      getVRMS_vrmsreal_L0+3
;Slave_OA.c,222 :: 		vrmsreal = vrmsreal- 2626.4;
	MOVLW      102
	MOVWF      R4+0
	MOVLW      38
	MOVWF      R4+1
	MOVLW      36
	MOVWF      R4+2
	MOVLW      138
	MOVWF      R4+3
	CALL       _Sub_32x32_FP+0
	MOVF       R0+0, 0
	MOVWF      getVRMS_vrmsreal_L0+0
	MOVF       R0+1, 0
	MOVWF      getVRMS_vrmsreal_L0+1
	MOVF       R0+2, 0
	MOVWF      getVRMS_vrmsreal_L0+2
	MOVF       R0+3, 0
	MOVWF      getVRMS_vrmsreal_L0+3
;Slave_OA.c,224 :: 		if(vrmsreal > 400 || vrmsreal < 0){
	MOVF       R0+0, 0
	MOVWF      R4+0
	MOVF       R0+1, 0
	MOVWF      R4+1
	MOVF       R0+2, 0
	MOVWF      R4+2
	MOVF       R0+3, 0
	MOVWF      R4+3
	MOVLW      0
	MOVWF      R0+0
	MOVLW      0
	MOVWF      R0+1
	MOVLW      72
	MOVWF      R0+2
	MOVLW      135
	MOVWF      R0+3
	CALL       _Compare_Double+0
	MOVLW      1
	BTFSC      STATUS+0, 0
	MOVLW      0
	MOVWF      R0+0
	MOVF       R0+0, 0
	BTFSS      STATUS+0, 2
	GOTO       L__getVRMS58
	CLRF       R4+0
	CLRF       R4+1
	CLRF       R4+2
	CLRF       R4+3
	MOVF       getVRMS_vrmsreal_L0+0, 0
	MOVWF      R0+0
	MOVF       getVRMS_vrmsreal_L0+1, 0
	MOVWF      R0+1
	MOVF       getVRMS_vrmsreal_L0+2, 0
	MOVWF      R0+2
	MOVF       getVRMS_vrmsreal_L0+3, 0
	MOVWF      R0+3
	CALL       _Compare_Double+0
	MOVLW      1
	BTFSC      STATUS+0, 0
	MOVLW      0
	MOVWF      R0+0
	MOVF       R0+0, 0
	BTFSS      STATUS+0, 2
	GOTO       L__getVRMS58
	GOTO       L_getVRMS32
L__getVRMS58:
;Slave_OA.c,225 :: 		vrmsreal = 0;
	CLRF       getVRMS_vrmsreal_L0+0
	CLRF       getVRMS_vrmsreal_L0+1
	CLRF       getVRMS_vrmsreal_L0+2
	CLRF       getVRMS_vrmsreal_L0+3
;Slave_OA.c,226 :: 		}
L_getVRMS32:
;Slave_OA.c,227 :: 		return vrmsreal;
	MOVF       getVRMS_vrmsreal_L0+0, 0
	MOVWF      R0+0
	MOVF       getVRMS_vrmsreal_L0+1, 0
	MOVWF      R0+1
	MOVF       getVRMS_vrmsreal_L0+2, 0
	MOVWF      R0+2
	MOVF       getVRMS_vrmsreal_L0+3, 0
	MOVWF      R0+3
;Slave_OA.c,228 :: 		}
L_end_getVRMS:
	RETURN
; end of _getVRMS

_getIRMS:

;Slave_OA.c,232 :: 		float getIRMS(void)
;Slave_OA.c,237 :: 		totali = 0;
	CLRF       getIRMS_totali_L0+0
	CLRF       getIRMS_totali_L0+1
	CLRF       getIRMS_totali_L0+2
	CLRF       getIRMS_totali_L0+3
;Slave_OA.c,238 :: 		j = 0;
	CLRF       getIRMS_j_L0+0
	CLRF       getIRMS_j_L0+1
;Slave_OA.c,239 :: 		Write_ADE7753(IRQEN,0x0010,2);
	MOVLW      10
	MOVWF      FARG_Write_ADE7753_add+0
	MOVLW      16
	MOVWF      FARG_Write_ADE7753_write_buffer+0
	CLRF       FARG_Write_ADE7753_write_buffer+1
	CLRF       FARG_Write_ADE7753_write_buffer+2
	CLRF       FARG_Write_ADE7753_write_buffer+3
	MOVLW      2
	MOVWF      FARG_Write_ADE7753_bytes_to_write+0
	MOVLW      0
	MOVWF      FARG_Write_ADE7753_bytes_to_write+1
	CALL       _Write_ADE7753+0
;Slave_OA.c,240 :: 		for(i=0;i<10;i++)
	CLRF       getIRMS_i_L0+0
	CLRF       getIRMS_i_L0+1
L_getIRMS33:
	MOVLW      128
	XORWF      getIRMS_i_L0+1, 0
	MOVWF      R0+0
	MOVLW      128
	SUBWF      R0+0, 0
	BTFSS      STATUS+0, 2
	GOTO       L__getIRMS84
	MOVLW      10
	SUBWF      getIRMS_i_L0+0, 0
L__getIRMS84:
	BTFSC      STATUS+0, 0
	GOTO       L_getIRMS34
;Slave_OA.c,242 :: 		getresetInterruptStatus();
	CALL       _getresetInterruptStatus+0
;Slave_OA.c,243 :: 		while(! (getInterruptStatus() & ZX)){
L_getIRMS36:
	CALL       _getInterruptStatus+0
	BTFSC      R0+0, 4
	GOTO       L_getIRMS37
;Slave_OA.c,244 :: 		j++;
	INCF       getIRMS_j_L0+0, 1
	BTFSC      STATUS+0, 2
	INCF       getIRMS_j_L0+1, 1
;Slave_OA.c,245 :: 		if(j>100){
	MOVLW      128
	MOVWF      R0+0
	MOVLW      128
	XORWF      getIRMS_j_L0+1, 0
	SUBWF      R0+0, 0
	BTFSS      STATUS+0, 2
	GOTO       L__getIRMS85
	MOVF       getIRMS_j_L0+0, 0
	SUBLW      100
L__getIRMS85:
	BTFSC      STATUS+0, 0
	GOTO       L_getIRMS38
;Slave_OA.c,246 :: 		j=0;
	CLRF       getIRMS_j_L0+0
	CLRF       getIRMS_j_L0+1
;Slave_OA.c,247 :: 		break;
	GOTO       L_getIRMS37
;Slave_OA.c,248 :: 		}
L_getIRMS38:
;Slave_OA.c,249 :: 		}
	GOTO       L_getIRMS36
L_getIRMS37:
;Slave_OA.c,250 :: 		outputADE=Read_ADE7753(IRMS,3);
	MOVLW      22
	MOVWF      FARG_Read_ADE7753_add+0
	MOVLW      3
	MOVWF      FARG_Read_ADE7753_bytes_to_read+0
	CALL       _Read_ADE7753+0
	MOVF       R0+0, 0
	MOVWF      _outputADE+0
	MOVF       R0+1, 0
	MOVWF      _outputADE+1
	MOVF       R0+2, 0
	MOVWF      _outputADE+2
	MOVF       R0+3, 0
	MOVWF      _outputADE+3
;Slave_OA.c,251 :: 		Delay_ms(20);
	MOVLW      130
	MOVWF      R12+0
	MOVLW      221
	MOVWF      R13+0
L_getIRMS39:
	DECFSZ     R13+0, 1
	GOTO       L_getIRMS39
	DECFSZ     R12+0, 1
	GOTO       L_getIRMS39
	NOP
	NOP
;Slave_OA.c,252 :: 		totali=totali+outputADE;
	MOVF       _outputADE+0, 0
	ADDWF      getIRMS_totali_L0+0, 1
	MOVF       _outputADE+1, 0
	BTFSC      STATUS+0, 0
	INCFSZ     _outputADE+1, 0
	ADDWF      getIRMS_totali_L0+1, 1
	MOVF       _outputADE+2, 0
	BTFSC      STATUS+0, 0
	INCFSZ     _outputADE+2, 0
	ADDWF      getIRMS_totali_L0+2, 1
	MOVF       _outputADE+3, 0
	BTFSC      STATUS+0, 0
	INCFSZ     _outputADE+3, 0
	ADDWF      getIRMS_totali_L0+3, 1
;Slave_OA.c,253 :: 		Delay_ms(25);
	MOVLW      163
	MOVWF      R12+0
	MOVLW      85
	MOVWF      R13+0
L_getIRMS40:
	DECFSZ     R13+0, 1
	GOTO       L_getIRMS40
	DECFSZ     R12+0, 1
	GOTO       L_getIRMS40
;Slave_OA.c,240 :: 		for(i=0;i<10;i++)
	INCF       getIRMS_i_L0+0, 1
	BTFSC      STATUS+0, 2
	INCF       getIRMS_i_L0+1, 1
;Slave_OA.c,254 :: 		}
	GOTO       L_getIRMS33
L_getIRMS34:
;Slave_OA.c,255 :: 		getresetInterruptStatus();
	CALL       _getresetInterruptStatus+0
;Slave_OA.c,256 :: 		irmsraw = totali/10;
	MOVLW      10
	MOVWF      R4+0
	CLRF       R4+1
	CLRF       R4+2
	CLRF       R4+3
	MOVF       getIRMS_totali_L0+0, 0
	MOVWF      R0+0
	MOVF       getIRMS_totali_L0+1, 0
	MOVWF      R0+1
	MOVF       getIRMS_totali_L0+2, 0
	MOVWF      R0+2
	MOVF       getIRMS_totali_L0+3, 0
	MOVWF      R0+3
	CALL       _Div_32x32_S+0
;Slave_OA.c,257 :: 		irmsraw = irmsraw & 0xFFFFFF;
	MOVLW      255
	ANDWF      R0+0, 1
	MOVLW      255
	ANDWF      R0+1, 1
	MOVLW      255
	ANDWF      R0+2, 1
	MOVLW      0
	ANDWF      R0+3, 1
;Slave_OA.c,258 :: 		irmsreal = (float)irmsraw;
	CALL       _longint2double+0
	MOVF       R0+0, 0
	MOVWF      getIRMS_irmsreal_L0+0
	MOVF       R0+1, 0
	MOVWF      getIRMS_irmsreal_L0+1
	MOVF       R0+2, 0
	MOVWF      getIRMS_irmsreal_L0+2
	MOVF       R0+3, 0
	MOVWF      getIRMS_irmsreal_L0+3
;Slave_OA.c,259 :: 		irmsreal = irmsreal * 0.00003714;
	MOVLW      197
	MOVWF      R4+0
	MOVLW      198
	MOVWF      R4+1
	MOVLW      27
	MOVWF      R4+2
	MOVLW      112
	MOVWF      R4+3
	CALL       _Mul_32x32_FP+0
	MOVF       R0+0, 0
	MOVWF      getIRMS_irmsreal_L0+0
	MOVF       R0+1, 0
	MOVWF      getIRMS_irmsreal_L0+1
	MOVF       R0+2, 0
	MOVWF      getIRMS_irmsreal_L0+2
	MOVF       R0+3, 0
	MOVWF      getIRMS_irmsreal_L0+3
;Slave_OA.c,260 :: 		irmsreal = irmsreal- 288.1919;
	MOVLW      144
	MOVWF      R4+0
	MOVLW      24
	MOVWF      R4+1
	MOVLW      16
	MOVWF      R4+2
	MOVLW      135
	MOVWF      R4+3
	CALL       _Sub_32x32_FP+0
	MOVF       R0+0, 0
	MOVWF      getIRMS_irmsreal_L0+0
	MOVF       R0+1, 0
	MOVWF      getIRMS_irmsreal_L0+1
	MOVF       R0+2, 0
	MOVWF      getIRMS_irmsreal_L0+2
	MOVF       R0+3, 0
	MOVWF      getIRMS_irmsreal_L0+3
;Slave_OA.c,262 :: 		if(irmsreal > 40 || irmsreal < 0){
	MOVF       R0+0, 0
	MOVWF      R4+0
	MOVF       R0+1, 0
	MOVWF      R4+1
	MOVF       R0+2, 0
	MOVWF      R4+2
	MOVF       R0+3, 0
	MOVWF      R4+3
	MOVLW      0
	MOVWF      R0+0
	MOVLW      0
	MOVWF      R0+1
	MOVLW      32
	MOVWF      R0+2
	MOVLW      132
	MOVWF      R0+3
	CALL       _Compare_Double+0
	MOVLW      1
	BTFSC      STATUS+0, 0
	MOVLW      0
	MOVWF      R0+0
	MOVF       R0+0, 0
	BTFSS      STATUS+0, 2
	GOTO       L__getIRMS59
	CLRF       R4+0
	CLRF       R4+1
	CLRF       R4+2
	CLRF       R4+3
	MOVF       getIRMS_irmsreal_L0+0, 0
	MOVWF      R0+0
	MOVF       getIRMS_irmsreal_L0+1, 0
	MOVWF      R0+1
	MOVF       getIRMS_irmsreal_L0+2, 0
	MOVWF      R0+2
	MOVF       getIRMS_irmsreal_L0+3, 0
	MOVWF      R0+3
	CALL       _Compare_Double+0
	MOVLW      1
	BTFSC      STATUS+0, 0
	MOVLW      0
	MOVWF      R0+0
	MOVF       R0+0, 0
	BTFSS      STATUS+0, 2
	GOTO       L__getIRMS59
	GOTO       L_getIRMS43
L__getIRMS59:
;Slave_OA.c,263 :: 		irmsreal = 0;
	CLRF       getIRMS_irmsreal_L0+0
	CLRF       getIRMS_irmsreal_L0+1
	CLRF       getIRMS_irmsreal_L0+2
	CLRF       getIRMS_irmsreal_L0+3
;Slave_OA.c,264 :: 		}
L_getIRMS43:
;Slave_OA.c,265 :: 		return irmsreal;
	MOVF       getIRMS_irmsreal_L0+0, 0
	MOVWF      R0+0
	MOVF       getIRMS_irmsreal_L0+1, 0
	MOVWF      R0+1
	MOVF       getIRMS_irmsreal_L0+2, 0
	MOVWF      R0+2
	MOVF       getIRMS_irmsreal_L0+3, 0
	MOVWF      R0+3
;Slave_OA.c,266 :: 		}
L_end_getIRMS:
	RETURN
; end of _getIRMS

_getAPOWER:

;Slave_OA.c,268 :: 		float getAPOWER(void)
;Slave_OA.c,274 :: 		apreal =0;
	CLRF       getAPOWER_apreal_L0+0
	CLRF       getAPOWER_apreal_L0+1
	CLRF       getAPOWER_apreal_L0+2
	CLRF       getAPOWER_apreal_L0+3
;Slave_OA.c,275 :: 		Write_ADE7753(LINECYC,100,2);
	MOVLW      28
	MOVWF      FARG_Write_ADE7753_add+0
	MOVLW      100
	MOVWF      FARG_Write_ADE7753_write_buffer+0
	CLRF       FARG_Write_ADE7753_write_buffer+1
	CLRF       FARG_Write_ADE7753_write_buffer+2
	CLRF       FARG_Write_ADE7753_write_buffer+3
	MOVLW      2
	MOVWF      FARG_Write_ADE7753_bytes_to_write+0
	MOVLW      0
	MOVWF      FARG_Write_ADE7753_bytes_to_write+1
	CALL       _Write_ADE7753+0
;Slave_OA.c,276 :: 		Delay_ms(500);
	MOVLW      13
	MOVWF      R11+0
	MOVLW      175
	MOVWF      R12+0
	MOVLW      182
	MOVWF      R13+0
L_getAPOWER44:
	DECFSZ     R13+0, 1
	GOTO       L_getAPOWER44
	DECFSZ     R12+0, 1
	GOTO       L_getAPOWER44
	DECFSZ     R11+0, 1
	GOTO       L_getAPOWER44
	NOP
;Slave_OA.c,277 :: 		Write_ADE7753(MODE,0x0080,2);
	MOVLW      9
	MOVWF      FARG_Write_ADE7753_add+0
	MOVLW      128
	MOVWF      FARG_Write_ADE7753_write_buffer+0
	CLRF       FARG_Write_ADE7753_write_buffer+1
	CLRF       FARG_Write_ADE7753_write_buffer+2
	CLRF       FARG_Write_ADE7753_write_buffer+3
	MOVLW      2
	MOVWF      FARG_Write_ADE7753_bytes_to_write+0
	MOVLW      0
	MOVWF      FARG_Write_ADE7753_bytes_to_write+1
	CALL       _Write_ADE7753+0
;Slave_OA.c,278 :: 		Delay_ms(500);
	MOVLW      13
	MOVWF      R11+0
	MOVLW      175
	MOVWF      R12+0
	MOVLW      182
	MOVWF      R13+0
L_getAPOWER45:
	DECFSZ     R13+0, 1
	GOTO       L_getAPOWER45
	DECFSZ     R12+0, 1
	GOTO       L_getAPOWER45
	DECFSZ     R11+0, 1
	GOTO       L_getAPOWER45
	NOP
;Slave_OA.c,279 :: 		Write_ADE7753(IRQEN,0x0004,2);
	MOVLW      10
	MOVWF      FARG_Write_ADE7753_add+0
	MOVLW      4
	MOVWF      FARG_Write_ADE7753_write_buffer+0
	CLRF       FARG_Write_ADE7753_write_buffer+1
	CLRF       FARG_Write_ADE7753_write_buffer+2
	CLRF       FARG_Write_ADE7753_write_buffer+3
	MOVLW      2
	MOVWF      FARG_Write_ADE7753_bytes_to_write+0
	MOVLW      0
	MOVWF      FARG_Write_ADE7753_bytes_to_write+1
	CALL       _Write_ADE7753+0
;Slave_OA.c,280 :: 		Delay_ms(500);
	MOVLW      13
	MOVWF      R11+0
	MOVLW      175
	MOVWF      R12+0
	MOVLW      182
	MOVWF      R13+0
L_getAPOWER46:
	DECFSZ     R13+0, 1
	GOTO       L_getAPOWER46
	DECFSZ     R12+0, 1
	GOTO       L_getAPOWER46
	DECFSZ     R11+0, 1
	GOTO       L_getAPOWER46
	NOP
;Slave_OA.c,281 :: 		getresetInterruptStatus();
	CALL       _getresetInterruptStatus+0
;Slave_OA.c,282 :: 		while(! (getInterruptStatus() & CYCEND)){
L_getAPOWER47:
	CALL       _getInterruptStatus+0
	BTFSC      R0+0, 2
	GOTO       L_getAPOWER48
;Slave_OA.c,283 :: 		j++;
	INCF       getAPOWER_j_L0+0, 1
	BTFSC      STATUS+0, 2
	INCF       getAPOWER_j_L0+1, 1
;Slave_OA.c,284 :: 		if(j>200){
	MOVLW      128
	MOVWF      R0+0
	MOVLW      128
	XORWF      getAPOWER_j_L0+1, 0
	SUBWF      R0+0, 0
	BTFSS      STATUS+0, 2
	GOTO       L__getAPOWER87
	MOVF       getAPOWER_j_L0+0, 0
	SUBLW      200
L__getAPOWER87:
	BTFSC      STATUS+0, 0
	GOTO       L_getAPOWER49
;Slave_OA.c,285 :: 		j=0;
	CLRF       getAPOWER_j_L0+0
	CLRF       getAPOWER_j_L0+1
;Slave_OA.c,286 :: 		break;
	GOTO       L_getAPOWER48
;Slave_OA.c,287 :: 		}
L_getAPOWER49:
;Slave_OA.c,288 :: 		}
	GOTO       L_getAPOWER47
L_getAPOWER48:
;Slave_OA.c,290 :: 		getresetInterruptStatus();
	CALL       _getresetInterruptStatus+0
;Slave_OA.c,291 :: 		while(! (getInterruptStatus() & CYCEND)){
L_getAPOWER50:
	CALL       _getInterruptStatus+0
	BTFSC      R0+0, 2
	GOTO       L_getAPOWER51
;Slave_OA.c,292 :: 		j++;
	INCF       getAPOWER_j_L0+0, 1
	BTFSC      STATUS+0, 2
	INCF       getAPOWER_j_L0+1, 1
;Slave_OA.c,293 :: 		if(j>200){
	MOVLW      128
	MOVWF      R0+0
	MOVLW      128
	XORWF      getAPOWER_j_L0+1, 0
	SUBWF      R0+0, 0
	BTFSS      STATUS+0, 2
	GOTO       L__getAPOWER88
	MOVF       getAPOWER_j_L0+0, 0
	SUBLW      200
L__getAPOWER88:
	BTFSC      STATUS+0, 0
	GOTO       L_getAPOWER52
;Slave_OA.c,294 :: 		j=0;
	CLRF       getAPOWER_j_L0+0
	CLRF       getAPOWER_j_L0+1
;Slave_OA.c,295 :: 		break;
	GOTO       L_getAPOWER51
;Slave_OA.c,296 :: 		}
L_getAPOWER52:
;Slave_OA.c,297 :: 		}
	GOTO       L_getAPOWER50
L_getAPOWER51:
;Slave_OA.c,298 :: 		getresetInterruptStatus();
	CALL       _getresetInterruptStatus+0
;Slave_OA.c,299 :: 		outputADE=Read_ADE7753(LAENERGY,3);
	MOVLW      4
	MOVWF      FARG_Read_ADE7753_add+0
	MOVLW      3
	MOVWF      FARG_Read_ADE7753_bytes_to_read+0
	CALL       _Read_ADE7753+0
	MOVF       R0+0, 0
	MOVWF      _outputADE+0
	MOVF       R0+1, 0
	MOVWF      _outputADE+1
	MOVF       R0+2, 0
	MOVWF      _outputADE+2
	MOVF       R0+3, 0
	MOVWF      _outputADE+3
;Slave_OA.c,300 :: 		Delay_ms(500);
	MOVLW      13
	MOVWF      R11+0
	MOVLW      175
	MOVWF      R12+0
	MOVLW      182
	MOVWF      R13+0
L_getAPOWER53:
	DECFSZ     R13+0, 1
	GOTO       L_getAPOWER53
	DECFSZ     R12+0, 1
	GOTO       L_getAPOWER53
	DECFSZ     R11+0, 1
	GOTO       L_getAPOWER53
	NOP
;Slave_OA.c,302 :: 		apraw = apraw & 0xFFFF;
	MOVLW      255
	ANDWF      _outputADE+0, 0
	MOVWF      R0+0
	MOVLW      255
	ANDWF      _outputADE+1, 0
	MOVWF      R0+1
	MOVF       _outputADE+2, 0
	MOVWF      R0+2
	MOVF       _outputADE+3, 0
	MOVWF      R0+3
	MOVLW      0
	ANDWF      R0+2, 1
	ANDWF      R0+3, 1
;Slave_OA.c,304 :: 		apreal = (float)apraw;
	CALL       _longint2double+0
	MOVF       R0+0, 0
	MOVWF      getAPOWER_apreal_L0+0
	MOVF       R0+1, 0
	MOVWF      getAPOWER_apreal_L0+1
	MOVF       R0+2, 0
	MOVWF      getAPOWER_apreal_L0+2
	MOVF       R0+3, 0
	MOVWF      getAPOWER_apreal_L0+3
;Slave_OA.c,305 :: 		apreal = apreal * 1.6425;
	MOVLW      113
	MOVWF      R4+0
	MOVLW      61
	MOVWF      R4+1
	MOVLW      82
	MOVWF      R4+2
	MOVLW      127
	MOVWF      R4+3
	CALL       _Mul_32x32_FP+0
	MOVF       R0+0, 0
	MOVWF      getAPOWER_apreal_L0+0
	MOVF       R0+1, 0
	MOVWF      getAPOWER_apreal_L0+1
	MOVF       R0+2, 0
	MOVWF      getAPOWER_apreal_L0+2
	MOVF       R0+3, 0
	MOVWF      getAPOWER_apreal_L0+3
;Slave_OA.c,306 :: 		apreal = apreal + 0.14;
	MOVLW      41
	MOVWF      R4+0
	MOVLW      92
	MOVWF      R4+1
	MOVLW      15
	MOVWF      R4+2
	MOVLW      124
	MOVWF      R4+3
	CALL       _Add_32x32_FP+0
	MOVF       R0+0, 0
	MOVWF      getAPOWER_apreal_L0+0
	MOVF       R0+1, 0
	MOVWF      getAPOWER_apreal_L0+1
	MOVF       R0+2, 0
	MOVWF      getAPOWER_apreal_L0+2
	MOVF       R0+3, 0
	MOVWF      getAPOWER_apreal_L0+3
;Slave_OA.c,307 :: 		Write_ADE7753(LINECYC,0xFFFF,2);
	MOVLW      28
	MOVWF      FARG_Write_ADE7753_add+0
	MOVLW      255
	MOVWF      FARG_Write_ADE7753_write_buffer+0
	MOVLW      255
	MOVWF      FARG_Write_ADE7753_write_buffer+1
	CLRF       FARG_Write_ADE7753_write_buffer+2
	CLRF       FARG_Write_ADE7753_write_buffer+3
	MOVLW      2
	MOVWF      FARG_Write_ADE7753_bytes_to_write+0
	MOVLW      0
	MOVWF      FARG_Write_ADE7753_bytes_to_write+1
	CALL       _Write_ADE7753+0
;Slave_OA.c,308 :: 		Delay_ms(500);
	MOVLW      13
	MOVWF      R11+0
	MOVLW      175
	MOVWF      R12+0
	MOVLW      182
	MOVWF      R13+0
L_getAPOWER54:
	DECFSZ     R13+0, 1
	GOTO       L_getAPOWER54
	DECFSZ     R12+0, 1
	GOTO       L_getAPOWER54
	DECFSZ     R11+0, 1
	GOTO       L_getAPOWER54
	NOP
;Slave_OA.c,309 :: 		if(apreal < 8 || apreal > 2000){
	MOVLW      0
	MOVWF      R4+0
	MOVLW      0
	MOVWF      R4+1
	MOVLW      0
	MOVWF      R4+2
	MOVLW      130
	MOVWF      R4+3
	MOVF       getAPOWER_apreal_L0+0, 0
	MOVWF      R0+0
	MOVF       getAPOWER_apreal_L0+1, 0
	MOVWF      R0+1
	MOVF       getAPOWER_apreal_L0+2, 0
	MOVWF      R0+2
	MOVF       getAPOWER_apreal_L0+3, 0
	MOVWF      R0+3
	CALL       _Compare_Double+0
	MOVLW      1
	BTFSC      STATUS+0, 0
	MOVLW      0
	MOVWF      R0+0
	MOVF       R0+0, 0
	BTFSS      STATUS+0, 2
	GOTO       L__getAPOWER60
	MOVF       getAPOWER_apreal_L0+0, 0
	MOVWF      R4+0
	MOVF       getAPOWER_apreal_L0+1, 0
	MOVWF      R4+1
	MOVF       getAPOWER_apreal_L0+2, 0
	MOVWF      R4+2
	MOVF       getAPOWER_apreal_L0+3, 0
	MOVWF      R4+3
	MOVLW      0
	MOVWF      R0+0
	MOVLW      0
	MOVWF      R0+1
	MOVLW      122
	MOVWF      R0+2
	MOVLW      137
	MOVWF      R0+3
	CALL       _Compare_Double+0
	MOVLW      1
	BTFSC      STATUS+0, 0
	MOVLW      0
	MOVWF      R0+0
	MOVF       R0+0, 0
	BTFSS      STATUS+0, 2
	GOTO       L__getAPOWER60
	GOTO       L_getAPOWER57
L__getAPOWER60:
;Slave_OA.c,310 :: 		apreal = 0;
	CLRF       getAPOWER_apreal_L0+0
	CLRF       getAPOWER_apreal_L0+1
	CLRF       getAPOWER_apreal_L0+2
	CLRF       getAPOWER_apreal_L0+3
;Slave_OA.c,311 :: 		}
L_getAPOWER57:
;Slave_OA.c,312 :: 		return apreal;
	MOVF       getAPOWER_apreal_L0+0, 0
	MOVWF      R0+0
	MOVF       getAPOWER_apreal_L0+1, 0
	MOVWF      R0+1
	MOVF       getAPOWER_apreal_L0+2, 0
	MOVWF      R0+2
	MOVF       getAPOWER_apreal_L0+3, 0
	MOVWF      R0+3
;Slave_OA.c,313 :: 		}
L_end_getAPOWER:
	RETURN
; end of _getAPOWER

_Test:

;Slave_OA.c,318 :: 		void Test (void)
;Slave_OA.c,320 :: 		Write_ADE7753(LINECYC,0xABEF,2);
	MOVLW      28
	MOVWF      FARG_Write_ADE7753_add+0
	MOVLW      239
	MOVWF      FARG_Write_ADE7753_write_buffer+0
	MOVLW      171
	MOVWF      FARG_Write_ADE7753_write_buffer+1
	CLRF       FARG_Write_ADE7753_write_buffer+2
	CLRF       FARG_Write_ADE7753_write_buffer+3
	MOVLW      2
	MOVWF      FARG_Write_ADE7753_bytes_to_write+0
	MOVLW      0
	MOVWF      FARG_Write_ADE7753_bytes_to_write+1
	CALL       _Write_ADE7753+0
;Slave_OA.c,321 :: 		outputADE = Read_ADE7753(LINECYC,2);
	MOVLW      28
	MOVWF      FARG_Read_ADE7753_add+0
	MOVLW      2
	MOVWF      FARG_Read_ADE7753_bytes_to_read+0
	CALL       _Read_ADE7753+0
	MOVF       R0+0, 0
	MOVWF      _outputADE+0
	MOVF       R0+1, 0
	MOVWF      _outputADE+1
	MOVF       R0+2, 0
	MOVWF      _outputADE+2
	MOVF       R0+3, 0
	MOVWF      _outputADE+3
;Slave_OA.c,322 :: 		HienthiUART(outputADE,2);
	MOVF       R0+0, 0
	MOVWF      FARG_HienthiUART_outputADE+0
	MOVF       R0+1, 0
	MOVWF      FARG_HienthiUART_outputADE+1
	MOVF       R0+2, 0
	MOVWF      FARG_HienthiUART_outputADE+2
	MOVF       R0+3, 0
	MOVWF      FARG_HienthiUART_outputADE+3
	MOVLW      2
	MOVWF      FARG_HienthiUART_bytes_to_write+0
	MOVLW      0
	MOVWF      FARG_HienthiUART_bytes_to_write+1
	CALL       _HienthiUART+0
;Slave_OA.c,323 :: 		}
L_end_Test:
	RETURN
; end of _Test
