
_interrupt:
	MOVWF      R15+0
	SWAPF      STATUS+0, 0
	CLRF       STATUS+0
	MOVWF      ___saveSTATUS+0
	MOVF       PCLATH+0, 0
	MOVWF      ___savePCLATH+0
	CLRF       PCLATH+0

;Slave_DA3.c,32 :: 		void interrupt()
;Slave_DA3.c,34 :: 		if(PIR1.RCIF)
	BTFSS      PIR1+0, 5
	GOTO       L_interrupt0
;Slave_DA3.c,36 :: 		while(uart1_data_ready()==0);
L_interrupt1:
	CALL       _UART1_Data_Ready+0
	MOVF       R0+0, 0
	XORLW      0
	BTFSS      STATUS+0, 2
	GOTO       L_interrupt2
	GOTO       L_interrupt1
L_interrupt2:
;Slave_DA3.c,37 :: 		if(uart1_data_ready()==1)
	CALL       _UART1_Data_Ready+0
	MOVF       R0+0, 0
	XORLW      1
	BTFSS      STATUS+0, 2
	GOTO       L_interrupt3
;Slave_DA3.c,39 :: 		tempReceiveData = UART1_Read();
	CALL       _UART1_Read+0
	MOVF       R0+0, 0
	MOVWF      _tempReceiveData+0
;Slave_DA3.c,40 :: 		if(tempReceiveData == 'S')
	MOVF       R0+0, 0
	XORLW      83
	BTFSS      STATUS+0, 2
	GOTO       L_interrupt4
;Slave_DA3.c,42 :: 		count=0;
	CLRF       _count+0
;Slave_DA3.c,43 :: 		receiveData[count] = tempReceiveData;
	MOVF       _count+0, 0
	ADDLW      _receiveData+0
	MOVWF      FSR
	MOVF       _tempReceiveData+0, 0
	MOVWF      INDF+0
;Slave_DA3.c,44 :: 		count++;
	INCF       _count+0, 1
;Slave_DA3.c,45 :: 		}
L_interrupt4:
;Slave_DA3.c,46 :: 		if(tempReceiveData !='S' && tempReceiveData !='E')
	MOVF       _tempReceiveData+0, 0
	XORLW      83
	BTFSC      STATUS+0, 2
	GOTO       L_interrupt7
	MOVF       _tempReceiveData+0, 0
	XORLW      69
	BTFSC      STATUS+0, 2
	GOTO       L_interrupt7
L__interrupt48:
;Slave_DA3.c,48 :: 		receiveData[count] = tempReceiveData;
	MOVF       _count+0, 0
	ADDLW      _receiveData+0
	MOVWF      FSR
	MOVF       _tempReceiveData+0, 0
	MOVWF      INDF+0
;Slave_DA3.c,49 :: 		count++;
	INCF       _count+0, 1
;Slave_DA3.c,50 :: 		}
L_interrupt7:
;Slave_DA3.c,51 :: 		if(tempReceiveData == 'E')
	MOVF       _tempReceiveData+0, 0
	XORLW      69
	BTFSS      STATUS+0, 2
	GOTO       L_interrupt8
;Slave_DA3.c,53 :: 		receiveData[count] = tempReceiveData;
	MOVF       _count+0, 0
	ADDLW      _receiveData+0
	MOVWF      FSR
	MOVF       _tempReceiveData+0, 0
	MOVWF      INDF+0
;Slave_DA3.c,54 :: 		count=0;
	CLRF       _count+0
;Slave_DA3.c,55 :: 		flagReceivedAllData = 1;
	MOVLW      1
	MOVWF      _flagReceivedAllData+0
;Slave_DA3.c,56 :: 		}
L_interrupt8:
;Slave_DA3.c,57 :: 		}
L_interrupt3:
;Slave_DA3.c,58 :: 		}
L_interrupt0:
;Slave_DA3.c,59 :: 		}
L_end_interrupt:
L__interrupt56:
	MOVF       ___savePCLATH+0, 0
	MOVWF      PCLATH+0
	SWAPF      ___saveSTATUS+0, 0
	MOVWF      STATUS+0
	SWAPF      R15+0, 1
	SWAPF      R15+0, 0
	RETFIE
; end of _interrupt

_main:

;Slave_DA3.c,60 :: 		void main() {
;Slave_DA3.c,61 :: 		TRISB.B0 =0;
	BCF        TRISB+0, 0
;Slave_DA3.c,62 :: 		TRISB.B4 =0;
	BCF        TRISB+0, 4
;Slave_DA3.c,63 :: 		TRISB.B5 =0;
	BCF        TRISB+0, 5
;Slave_DA3.c,65 :: 		TRISB.B3 =0;                         //Bit RS485
	BCF        TRISB+0, 3
;Slave_DA3.c,67 :: 		oldstate = 0;
	BCF        _oldstate+0, BitPos(_oldstate+0)
;Slave_DA3.c,68 :: 		UART1_Init(9600);
	MOVLW      129
	MOVWF      SPBRG+0
	BSF        TXSTA+0, 2
	CALL       _UART1_Init+0
;Slave_DA3.c,69 :: 		Delay_ms(100);
	MOVLW      3
	MOVWF      R11+0
	MOVLW      138
	MOVWF      R12+0
	MOVLW      85
	MOVWF      R13+0
L_main9:
	DECFSZ     R13+0, 1
	GOTO       L_main9
	DECFSZ     R12+0, 1
	GOTO       L_main9
	DECFSZ     R11+0, 1
	GOTO       L_main9
	NOP
	NOP
;Slave_DA3.c,71 :: 		RCIE_bit = 1;                        // enable interrupt on UART1 receive
	BSF        RCIE_bit+0, BitPos(RCIE_bit+0)
;Slave_DA3.c,72 :: 		TXIE_bit = 0;                        // disable interrupt on UART1 transmit
	BCF        TXIE_bit+0, BitPos(TXIE_bit+0)
;Slave_DA3.c,73 :: 		PEIE_bit = 1;                        // enable peripheral interrupts
	BSF        PEIE_bit+0, BitPos(PEIE_bit+0)
;Slave_DA3.c,74 :: 		GIE_bit = 1;                         // enable all interrupts
	BSF        GIE_bit+0, BitPos(GIE_bit+0)
;Slave_DA3.c,76 :: 		addressDevice1[0] = EEPROM_Read(0x04);
	MOVLW      4
	MOVWF      FARG_EEPROM_Read_Address+0
	CALL       _EEPROM_Read+0
	MOVF       R0+0, 0
	MOVWF      _addressDevice1+0
;Slave_DA3.c,77 :: 		addressDevice1[1] = EEPROM_Read(0x05);
	MOVLW      5
	MOVWF      FARG_EEPROM_Read_Address+0
	CALL       _EEPROM_Read+0
	MOVF       R0+0, 0
	MOVWF      _addressDevice1+1
;Slave_DA3.c,78 :: 		addressDevice2[0] = EEPROM_Read(0x08);
	MOVLW      8
	MOVWF      FARG_EEPROM_Read_Address+0
	CALL       _EEPROM_Read+0
	MOVF       R0+0, 0
	MOVWF      _addressDevice2+0
;Slave_DA3.c,79 :: 		addressDevice2[1] = EEPROM_Read(0x09);
	MOVLW      9
	MOVWF      FARG_EEPROM_Read_Address+0
	CALL       _EEPROM_Read+0
	MOVF       R0+0, 0
	MOVWF      _addressDevice2+1
;Slave_DA3.c,80 :: 		addressDevice3[0] = EEPROM_Read(0x0C);
	MOVLW      12
	MOVWF      FARG_EEPROM_Read_Address+0
	CALL       _EEPROM_Read+0
	MOVF       R0+0, 0
	MOVWF      _addressDevice3+0
;Slave_DA3.c,81 :: 		addressDevice3[1] = EEPROM_Read(0x0D);
	MOVLW      13
	MOVWF      FARG_EEPROM_Read_Address+0
	CALL       _EEPROM_Read+0
	MOVF       R0+0, 0
	MOVWF      _addressDevice3+1
;Slave_DA3.c,85 :: 		Delay_ms(100);
	MOVLW      3
	MOVWF      R11+0
	MOVLW      138
	MOVWF      R12+0
	MOVLW      85
	MOVWF      R13+0
L_main10:
	DECFSZ     R13+0, 1
	GOTO       L_main10
	DECFSZ     R12+0, 1
	GOTO       L_main10
	DECFSZ     R11+0, 1
	GOTO       L_main10
	NOP
	NOP
;Slave_DA3.c,87 :: 		if (addressDevice1[0]==0xff || addressDevice2[0]==0xff || addressDevice3[0]==0xff){
	MOVF       _addressDevice1+0, 0
	XORLW      255
	BTFSC      STATUS+0, 2
	GOTO       L__main54
	MOVF       _addressDevice2+0, 0
	XORLW      255
	BTFSC      STATUS+0, 2
	GOTO       L__main54
	MOVF       _addressDevice3+0, 0
	XORLW      255
	BTFSC      STATUS+0, 2
	GOTO       L__main54
	GOTO       L_main13
L__main54:
;Slave_DA3.c,88 :: 		sendData[0] = 'S';
	MOVLW      83
	MOVWF      _sendData+0
;Slave_DA3.c,89 :: 		sendData[1] = '0';
	MOVLW      48
	MOVWF      _sendData+1
;Slave_DA3.c,90 :: 		sendData[2] = '2';
	MOVLW      50
	MOVWF      _sendData+2
;Slave_DA3.c,91 :: 		sendData[3] = '0';
	MOVLW      48
	MOVWF      _sendData+3
;Slave_DA3.c,92 :: 		sendData[4] = '0';
	MOVLW      48
	MOVWF      _sendData+4
;Slave_DA3.c,93 :: 		sendData[5] = '0';
	MOVLW      48
	MOVWF      _sendData+5
;Slave_DA3.c,94 :: 		sendData[6] = '0';
	MOVLW      48
	MOVWF      _sendData+6
;Slave_DA3.c,95 :: 		sendData[7] = '0';
	MOVLW      48
	MOVWF      _sendData+7
;Slave_DA3.c,96 :: 		sendData[8] = 'D';
	MOVLW      68
	MOVWF      _sendData+8
;Slave_DA3.c,97 :: 		sendData[9] = '3';
	MOVLW      51
	MOVWF      _sendData+9
;Slave_DA3.c,98 :: 		sendData[10] = 'E';
	MOVLW      69
	MOVWF      _sendData+10
;Slave_DA3.c,99 :: 		RS485_send(sendData);
	MOVLW      _sendData+0
	MOVWF      FARG_RS485_send_dat+0
	CALL       _RS485_send+0
;Slave_DA3.c,100 :: 		}
L_main13:
;Slave_DA3.c,101 :: 		Delay_ms(1000);
	MOVLW      26
	MOVWF      R11+0
	MOVLW      94
	MOVWF      R12+0
	MOVLW      110
	MOVWF      R13+0
L_main14:
	DECFSZ     R13+0, 1
	GOTO       L_main14
	DECFSZ     R12+0, 1
	GOTO       L_main14
	DECFSZ     R11+0, 1
	GOTO       L_main14
	NOP
;Slave_DA3.c,102 :: 		while(1)
L_main15:
;Slave_DA3.c,104 :: 		if(flagReceivedAllData==1){
	MOVF       _flagReceivedAllData+0, 0
	XORLW      1
	BTFSS      STATUS+0, 2
	GOTO       L_main17
;Slave_DA3.c,105 :: 		flagReceivedAllData = 0;
	CLRF       _flagReceivedAllData+0
;Slave_DA3.c,107 :: 		if(receiveData[1] == '1' && receiveData[2] == '2'){
	MOVF       _receiveData+1, 0
	XORLW      49
	BTFSS      STATUS+0, 2
	GOTO       L_main20
	MOVF       _receiveData+2, 0
	XORLW      50
	BTFSS      STATUS+0, 2
	GOTO       L_main20
L__main53:
;Slave_DA3.c,108 :: 		if(receiveData[9] == '1'){
	MOVF       _receiveData+9, 0
	XORLW      49
	BTFSS      STATUS+0, 2
	GOTO       L_main21
;Slave_DA3.c,109 :: 		addressDevice1[0] = receiveData[4];
	MOVF       _receiveData+4, 0
	MOVWF      _addressDevice1+0
;Slave_DA3.c,110 :: 		addressDevice1[1] = receiveData[5];
	MOVF       _receiveData+5, 0
	MOVWF      _addressDevice1+1
;Slave_DA3.c,111 :: 		EEPROM_Write(0x04,addressDevice1[0]);
	MOVLW      4
	MOVWF      FARG_EEPROM_Write_Address+0
	MOVF       _addressDevice1+0, 0
	MOVWF      FARG_EEPROM_Write_data_+0
	CALL       _EEPROM_Write+0
;Slave_DA3.c,112 :: 		EEPROM_Write(0x05,addressDevice1[1]);
	MOVLW      5
	MOVWF      FARG_EEPROM_Write_Address+0
	MOVF       _addressDevice1+1, 0
	MOVWF      FARG_EEPROM_Write_data_+0
	CALL       _EEPROM_Write+0
;Slave_DA3.c,113 :: 		}
L_main21:
;Slave_DA3.c,114 :: 		if(receiveData[9] == '2'){
	MOVF       _receiveData+9, 0
	XORLW      50
	BTFSS      STATUS+0, 2
	GOTO       L_main22
;Slave_DA3.c,115 :: 		addressDevice2[0] = receiveData[4];
	MOVF       _receiveData+4, 0
	MOVWF      _addressDevice2+0
;Slave_DA3.c,116 :: 		addressDevice2[1] = receiveData[5];
	MOVF       _receiveData+5, 0
	MOVWF      _addressDevice2+1
;Slave_DA3.c,117 :: 		EEPROM_Write(0x08,addressDevice2[0]);
	MOVLW      8
	MOVWF      FARG_EEPROM_Write_Address+0
	MOVF       _addressDevice2+0, 0
	MOVWF      FARG_EEPROM_Write_data_+0
	CALL       _EEPROM_Write+0
;Slave_DA3.c,118 :: 		EEPROM_Write(0x09,addressDevice2[1]);
	MOVLW      9
	MOVWF      FARG_EEPROM_Write_Address+0
	MOVF       _addressDevice2+1, 0
	MOVWF      FARG_EEPROM_Write_data_+0
	CALL       _EEPROM_Write+0
;Slave_DA3.c,119 :: 		}
L_main22:
;Slave_DA3.c,120 :: 		if(receiveData[9] == '3'){
	MOVF       _receiveData+9, 0
	XORLW      51
	BTFSS      STATUS+0, 2
	GOTO       L_main23
;Slave_DA3.c,121 :: 		addressDevice3[0] = receiveData[4];
	MOVF       _receiveData+4, 0
	MOVWF      _addressDevice3+0
;Slave_DA3.c,122 :: 		addressDevice3[1] = receiveData[5];
	MOVF       _receiveData+5, 0
	MOVWF      _addressDevice3+1
;Slave_DA3.c,123 :: 		EEPROM_Write(0x0C,addressDevice3[0]);
	MOVLW      12
	MOVWF      FARG_EEPROM_Write_Address+0
	MOVF       _addressDevice3+0, 0
	MOVWF      FARG_EEPROM_Write_data_+0
	CALL       _EEPROM_Write+0
;Slave_DA3.c,124 :: 		EEPROM_Write(0x0D,addressDevice3[1]);
	MOVLW      13
	MOVWF      FARG_EEPROM_Write_Address+0
	MOVF       _addressDevice3+1, 0
	MOVWF      FARG_EEPROM_Write_data_+0
	CALL       _EEPROM_Write+0
;Slave_DA3.c,125 :: 		}
L_main23:
;Slave_DA3.c,126 :: 		}
L_main20:
;Slave_DA3.c,128 :: 		if(receiveData[1] == '1' && receiveData[2] == '0' && receiveData[3] == 'D'){
	MOVF       _receiveData+1, 0
	XORLW      49
	BTFSS      STATUS+0, 2
	GOTO       L_main26
	MOVF       _receiveData+2, 0
	XORLW      48
	BTFSS      STATUS+0, 2
	GOTO       L_main26
	MOVF       _receiveData+3, 0
	XORLW      68
	BTFSS      STATUS+0, 2
	GOTO       L_main26
L__main52:
;Slave_DA3.c,129 :: 		if(receiveData[4] == addressDevice1[0] && receiveData[5] == addressDevice1[1]){
	MOVF       _receiveData+4, 0
	XORWF      _addressDevice1+0, 0
	BTFSS      STATUS+0, 2
	GOTO       L_main29
	MOVF       _receiveData+5, 0
	XORWF      _addressDevice1+1, 0
	BTFSS      STATUS+0, 2
	GOTO       L_main29
L__main51:
;Slave_DA3.c,130 :: 		if(receiveData[9] == '1'){
	MOVF       _receiveData+9, 0
	XORLW      49
	BTFSS      STATUS+0, 2
	GOTO       L_main30
;Slave_DA3.c,131 :: 		PORTB.RB0 =1;
	BSF        PORTB+0, 0
;Slave_DA3.c,132 :: 		}
L_main30:
;Slave_DA3.c,133 :: 		if(receiveData[9] == '0'){
	MOVF       _receiveData+9, 0
	XORLW      48
	BTFSS      STATUS+0, 2
	GOTO       L_main31
;Slave_DA3.c,134 :: 		PORTB.RB0 =0;
	BCF        PORTB+0, 0
;Slave_DA3.c,135 :: 		}
L_main31:
;Slave_DA3.c,136 :: 		}
L_main29:
;Slave_DA3.c,137 :: 		if(receiveData[4] == addressDevice2[0] && receiveData[5] == addressDevice2[1]){
	MOVF       _receiveData+4, 0
	XORWF      _addressDevice2+0, 0
	BTFSS      STATUS+0, 2
	GOTO       L_main34
	MOVF       _receiveData+5, 0
	XORWF      _addressDevice2+1, 0
	BTFSS      STATUS+0, 2
	GOTO       L_main34
L__main50:
;Slave_DA3.c,138 :: 		if(receiveData[9] == '1'){
	MOVF       _receiveData+9, 0
	XORLW      49
	BTFSS      STATUS+0, 2
	GOTO       L_main35
;Slave_DA3.c,139 :: 		PORTB.RB4 =1;
	BSF        PORTB+0, 4
;Slave_DA3.c,140 :: 		}
L_main35:
;Slave_DA3.c,141 :: 		if(receiveData[9] == '0'){
	MOVF       _receiveData+9, 0
	XORLW      48
	BTFSS      STATUS+0, 2
	GOTO       L_main36
;Slave_DA3.c,142 :: 		PORTB.RB4 =0;
	BCF        PORTB+0, 4
;Slave_DA3.c,143 :: 		}
L_main36:
;Slave_DA3.c,144 :: 		}
L_main34:
;Slave_DA3.c,145 :: 		if(receiveData[4] == addressDevice3[0] && receiveData[5] == addressDevice3[1]){
	MOVF       _receiveData+4, 0
	XORWF      _addressDevice3+0, 0
	BTFSS      STATUS+0, 2
	GOTO       L_main39
	MOVF       _receiveData+5, 0
	XORWF      _addressDevice3+1, 0
	BTFSS      STATUS+0, 2
	GOTO       L_main39
L__main49:
;Slave_DA3.c,146 :: 		if(receiveData[9] == '1'){
	MOVF       _receiveData+9, 0
	XORLW      49
	BTFSS      STATUS+0, 2
	GOTO       L_main40
;Slave_DA3.c,147 :: 		PORTB.RB5 =1;
	BSF        PORTB+0, 5
;Slave_DA3.c,148 :: 		}
L_main40:
;Slave_DA3.c,149 :: 		if(receiveData[9] == '0'){
	MOVF       _receiveData+9, 0
	XORLW      48
	BTFSS      STATUS+0, 2
	GOTO       L_main41
;Slave_DA3.c,150 :: 		PORTB.RB5 =0;
	BCF        PORTB+0, 5
;Slave_DA3.c,151 :: 		}
L_main41:
;Slave_DA3.c,152 :: 		}
L_main39:
;Slave_DA3.c,153 :: 		}
L_main26:
;Slave_DA3.c,156 :: 		}
L_main17:
;Slave_DA3.c,158 :: 		}
	GOTO       L_main15
;Slave_DA3.c,159 :: 		}
L_end_main:
	GOTO       $+0
; end of _main

_RS485_send:

;Slave_DA3.c,161 :: 		void RS485_send (char dat[])
;Slave_DA3.c,164 :: 		PORTB.RB3 =1;
	BSF        PORTB+0, 3
;Slave_DA3.c,165 :: 		for (i=0; i<=10;i++){
	CLRF       RS485_send_i_L0+0
	CLRF       RS485_send_i_L0+1
L_RS485_send42:
	MOVLW      128
	MOVWF      R0+0
	MOVLW      128
	XORWF      RS485_send_i_L0+1, 0
	SUBWF      R0+0, 0
	BTFSS      STATUS+0, 2
	GOTO       L__RS485_send59
	MOVF       RS485_send_i_L0+0, 0
	SUBLW      10
L__RS485_send59:
	BTFSS      STATUS+0, 0
	GOTO       L_RS485_send43
;Slave_DA3.c,166 :: 		while(UART1_Tx_Idle()==0);
L_RS485_send45:
	CALL       _UART1_Tx_Idle+0
	MOVF       R0+0, 0
	XORLW      0
	BTFSS      STATUS+0, 2
	GOTO       L_RS485_send46
	GOTO       L_RS485_send45
L_RS485_send46:
;Slave_DA3.c,167 :: 		UART1_Write(dat[i]);
	MOVF       RS485_send_i_L0+0, 0
	ADDWF      FARG_RS485_send_dat+0, 0
	MOVWF      FSR
	MOVF       INDF+0, 0
	MOVWF      FARG_UART1_Write_data_+0
	CALL       _UART1_Write+0
;Slave_DA3.c,165 :: 		for (i=0; i<=10;i++){
	INCF       RS485_send_i_L0+0, 1
	BTFSC      STATUS+0, 2
	INCF       RS485_send_i_L0+1, 1
;Slave_DA3.c,168 :: 		}
	GOTO       L_RS485_send42
L_RS485_send43:
;Slave_DA3.c,169 :: 		Delay_ms(200);
	MOVLW      6
	MOVWF      R11+0
	MOVLW      19
	MOVWF      R12+0
	MOVLW      173
	MOVWF      R13+0
L_RS485_send47:
	DECFSZ     R13+0, 1
	GOTO       L_RS485_send47
	DECFSZ     R12+0, 1
	GOTO       L_RS485_send47
	DECFSZ     R11+0, 1
	GOTO       L_RS485_send47
	NOP
	NOP
;Slave_DA3.c,170 :: 		PORTB.RB3 =0;
	BCF        PORTB+0, 3
;Slave_DA3.c,171 :: 		}
L_end_RS485_send:
	RETURN
; end of _RS485_send
