
_interrupt:
	MOVWF      R15+0
	SWAPF      STATUS+0, 0
	CLRF       STATUS+0
	MOVWF      ___saveSTATUS+0
	MOVF       PCLATH+0, 0
	MOVWF      ___savePCLATH+0
	CLRF       PCLATH+0

;Slave_DA3.c,32 :: 		void interrupt()
;Slave_DA3.c,34 :: 		if(PIR1.RCIF)
	BTFSS      PIR1+0, 5
	GOTO       L_interrupt0
;Slave_DA3.c,36 :: 		while(uart1_data_ready()==0);
L_interrupt1:
	CALL       _UART1_Data_Ready+0
	MOVF       R0+0, 0
	XORLW      0
	BTFSS      STATUS+0, 2
	GOTO       L_interrupt2
	GOTO       L_interrupt1
L_interrupt2:
;Slave_DA3.c,37 :: 		if(uart1_data_ready()==1)
	CALL       _UART1_Data_Ready+0
	MOVF       R0+0, 0
	XORLW      1
	BTFSS      STATUS+0, 2
	GOTO       L_interrupt3
;Slave_DA3.c,39 :: 		tempReceiveData = UART1_Read();
	CALL       _UART1_Read+0
	MOVF       R0+0, 0
	MOVWF      _tempReceiveData+0
;Slave_DA3.c,40 :: 		if(tempReceiveData == 'S')
	MOVF       R0+0, 0
	XORLW      83
	BTFSS      STATUS+0, 2
	GOTO       L_interrupt4
;Slave_DA3.c,42 :: 		count=0;
	CLRF       _count+0
;Slave_DA3.c,43 :: 		receiveData[count] = tempReceiveData;
	MOVF       _count+0, 0
	ADDLW      _receiveData+0
	MOVWF      FSR
	MOVF       _tempReceiveData+0, 0
	MOVWF      INDF+0
;Slave_DA3.c,44 :: 		count++;
	INCF       _count+0, 1
;Slave_DA3.c,45 :: 		}
L_interrupt4:
;Slave_DA3.c,46 :: 		if(tempReceiveData !='S' && tempReceiveData !='E')
	MOVF       _tempReceiveData+0, 0
	XORLW      83
	BTFSC      STATUS+0, 2
	GOTO       L_interrupt7
	MOVF       _tempReceiveData+0, 0
	XORLW      69
	BTFSC      STATUS+0, 2
	GOTO       L_interrupt7
L__interrupt39:
;Slave_DA3.c,48 :: 		receiveData[count] = tempReceiveData;
	MOVF       _count+0, 0
	ADDLW      _receiveData+0
	MOVWF      FSR
	MOVF       _tempReceiveData+0, 0
	MOVWF      INDF+0
;Slave_DA3.c,49 :: 		count++;
	INCF       _count+0, 1
;Slave_DA3.c,50 :: 		}
L_interrupt7:
;Slave_DA3.c,51 :: 		if(tempReceiveData == 'E')
	MOVF       _tempReceiveData+0, 0
	XORLW      69
	BTFSS      STATUS+0, 2
	GOTO       L_interrupt8
;Slave_DA3.c,53 :: 		receiveData[count] = tempReceiveData;
	MOVF       _count+0, 0
	ADDLW      _receiveData+0
	MOVWF      FSR
	MOVF       _tempReceiveData+0, 0
	MOVWF      INDF+0
;Slave_DA3.c,54 :: 		count=0;
	CLRF       _count+0
;Slave_DA3.c,55 :: 		flagReceivedAllData = 1;
	MOVLW      1
	MOVWF      _flagReceivedAllData+0
;Slave_DA3.c,56 :: 		}
L_interrupt8:
;Slave_DA3.c,57 :: 		}
L_interrupt3:
;Slave_DA3.c,58 :: 		}
L_interrupt0:
;Slave_DA3.c,59 :: 		}
L_end_interrupt:
L__interrupt45:
	MOVF       ___savePCLATH+0, 0
	MOVWF      PCLATH+0
	SWAPF      ___saveSTATUS+0, 0
	MOVWF      STATUS+0
	SWAPF      R15+0, 1
	SWAPF      R15+0, 0
	RETFIE
; end of _interrupt

_main:

;Slave_DA3.c,60 :: 		void main() {
;Slave_DA3.c,61 :: 		TRISB.B0 =0;
	BCF        TRISB+0, 0
;Slave_DA3.c,62 :: 		TRISB.B4 =0;
	BCF        TRISB+0, 4
;Slave_DA3.c,63 :: 		TRISB.B5 =0;
	BCF        TRISB+0, 5
;Slave_DA3.c,65 :: 		TRISB.B3 =0;                         //Bit RS485
	BCF        TRISB+0, 3
;Slave_DA3.c,67 :: 		oldstate = 0;
	BCF        _oldstate+0, BitPos(_oldstate+0)
;Slave_DA3.c,68 :: 		UART1_Init(9600);
	MOVLW      129
	MOVWF      SPBRG+0
	BSF        TXSTA+0, 2
	CALL       _UART1_Init+0
;Slave_DA3.c,69 :: 		Delay_ms(100);
	MOVLW      3
	MOVWF      R11+0
	MOVLW      138
	MOVWF      R12+0
	MOVLW      85
	MOVWF      R13+0
L_main9:
	DECFSZ     R13+0, 1
	GOTO       L_main9
	DECFSZ     R12+0, 1
	GOTO       L_main9
	DECFSZ     R11+0, 1
	GOTO       L_main9
	NOP
	NOP
;Slave_DA3.c,71 :: 		RCIE_bit = 1;                        // enable interrupt on UART1 receive
	BSF        RCIE_bit+0, BitPos(RCIE_bit+0)
;Slave_DA3.c,72 :: 		TXIE_bit = 0;                        // disable interrupt on UART1 transmit
	BCF        TXIE_bit+0, BitPos(TXIE_bit+0)
;Slave_DA3.c,73 :: 		PEIE_bit = 1;                        // enable peripheral interrupts
	BSF        PEIE_bit+0, BitPos(PEIE_bit+0)
;Slave_DA3.c,74 :: 		GIE_bit = 1;                         // enable all interrupts
	BSF        GIE_bit+0, BitPos(GIE_bit+0)
;Slave_DA3.c,76 :: 		addressDevice1[0] = '0';
	MOVLW      48
	MOVWF      _addressDevice1+0
;Slave_DA3.c,77 :: 		addressDevice1[1] = '1';
	MOVLW      49
	MOVWF      _addressDevice1+1
;Slave_DA3.c,78 :: 		addressDevice2[0] = '0';
	MOVLW      48
	MOVWF      _addressDevice2+0
;Slave_DA3.c,79 :: 		addressDevice2[1] = '2';
	MOVLW      50
	MOVWF      _addressDevice2+1
;Slave_DA3.c,80 :: 		addressDevice3[0] = '0';
	MOVLW      48
	MOVWF      _addressDevice3+0
;Slave_DA3.c,81 :: 		addressDevice3[1] = '3';
	MOVLW      51
	MOVWF      _addressDevice3+1
;Slave_DA3.c,92 :: 		Delay_ms(100);
	MOVLW      3
	MOVWF      R11+0
	MOVLW      138
	MOVWF      R12+0
	MOVLW      85
	MOVWF      R13+0
L_main10:
	DECFSZ     R13+0, 1
	GOTO       L_main10
	DECFSZ     R12+0, 1
	GOTO       L_main10
	DECFSZ     R11+0, 1
	GOTO       L_main10
	NOP
	NOP
;Slave_DA3.c,110 :: 		Delay_ms(1000);
	MOVLW      26
	MOVWF      R11+0
	MOVLW      94
	MOVWF      R12+0
	MOVLW      110
	MOVWF      R13+0
L_main11:
	DECFSZ     R13+0, 1
	GOTO       L_main11
	DECFSZ     R12+0, 1
	GOTO       L_main11
	DECFSZ     R11+0, 1
	GOTO       L_main11
	NOP
;Slave_DA3.c,111 :: 		while(1)
L_main12:
;Slave_DA3.c,114 :: 		if(flagReceivedAllData==1){
	MOVF       _flagReceivedAllData+0, 0
	XORLW      1
	BTFSS      STATUS+0, 2
	GOTO       L_main14
;Slave_DA3.c,115 :: 		flagReceivedAllData = 0;
	CLRF       _flagReceivedAllData+0
;Slave_DA3.c,140 :: 		if(receiveData[1] == '1' && receiveData[2] == '0' && receiveData[3] == 'D'){
	MOVF       _receiveData+1, 0
	XORLW      49
	BTFSS      STATUS+0, 2
	GOTO       L_main17
	MOVF       _receiveData+2, 0
	XORLW      48
	BTFSS      STATUS+0, 2
	GOTO       L_main17
	MOVF       _receiveData+3, 0
	XORLW      68
	BTFSS      STATUS+0, 2
	GOTO       L_main17
L__main43:
;Slave_DA3.c,141 :: 		if(receiveData[4] == addressDevice1[0] && receiveData[5] == addressDevice1[1]){
	MOVF       _receiveData+4, 0
	XORWF      _addressDevice1+0, 0
	BTFSS      STATUS+0, 2
	GOTO       L_main20
	MOVF       _receiveData+5, 0
	XORWF      _addressDevice1+1, 0
	BTFSS      STATUS+0, 2
	GOTO       L_main20
L__main42:
;Slave_DA3.c,142 :: 		if(receiveData[9] == '1'){
	MOVF       _receiveData+9, 0
	XORLW      49
	BTFSS      STATUS+0, 2
	GOTO       L_main21
;Slave_DA3.c,143 :: 		PORTB.RB0 =1;
	BSF        PORTB+0, 0
;Slave_DA3.c,144 :: 		}
L_main21:
;Slave_DA3.c,145 :: 		if(receiveData[9] == '0'){
	MOVF       _receiveData+9, 0
	XORLW      48
	BTFSS      STATUS+0, 2
	GOTO       L_main22
;Slave_DA3.c,146 :: 		PORTB.RB0 =0;
	BCF        PORTB+0, 0
;Slave_DA3.c,147 :: 		}
L_main22:
;Slave_DA3.c,148 :: 		}
L_main20:
;Slave_DA3.c,149 :: 		if(receiveData[4] == addressDevice2[0] && receiveData[5] == addressDevice2[1]){
	MOVF       _receiveData+4, 0
	XORWF      _addressDevice2+0, 0
	BTFSS      STATUS+0, 2
	GOTO       L_main25
	MOVF       _receiveData+5, 0
	XORWF      _addressDevice2+1, 0
	BTFSS      STATUS+0, 2
	GOTO       L_main25
L__main41:
;Slave_DA3.c,150 :: 		if(receiveData[9] == '1'){
	MOVF       _receiveData+9, 0
	XORLW      49
	BTFSS      STATUS+0, 2
	GOTO       L_main26
;Slave_DA3.c,151 :: 		PORTB.RB4 =1;
	BSF        PORTB+0, 4
;Slave_DA3.c,152 :: 		}
L_main26:
;Slave_DA3.c,153 :: 		if(receiveData[9] == '0'){
	MOVF       _receiveData+9, 0
	XORLW      48
	BTFSS      STATUS+0, 2
	GOTO       L_main27
;Slave_DA3.c,154 :: 		PORTB.RB4 =0;
	BCF        PORTB+0, 4
;Slave_DA3.c,155 :: 		}
L_main27:
;Slave_DA3.c,156 :: 		}
L_main25:
;Slave_DA3.c,157 :: 		if(receiveData[4] == addressDevice3[0] && receiveData[5] == addressDevice3[1]){
	MOVF       _receiveData+4, 0
	XORWF      _addressDevice3+0, 0
	BTFSS      STATUS+0, 2
	GOTO       L_main30
	MOVF       _receiveData+5, 0
	XORWF      _addressDevice3+1, 0
	BTFSS      STATUS+0, 2
	GOTO       L_main30
L__main40:
;Slave_DA3.c,158 :: 		if(receiveData[9] == '1'){
	MOVF       _receiveData+9, 0
	XORLW      49
	BTFSS      STATUS+0, 2
	GOTO       L_main31
;Slave_DA3.c,159 :: 		PORTB.RB5 =1;
	BSF        PORTB+0, 5
;Slave_DA3.c,160 :: 		}
L_main31:
;Slave_DA3.c,161 :: 		if(receiveData[9] == '0'){
	MOVF       _receiveData+9, 0
	XORLW      48
	BTFSS      STATUS+0, 2
	GOTO       L_main32
;Slave_DA3.c,162 :: 		PORTB.RB5 =0;
	BCF        PORTB+0, 5
;Slave_DA3.c,163 :: 		}
L_main32:
;Slave_DA3.c,164 :: 		}
L_main30:
;Slave_DA3.c,165 :: 		}
L_main17:
;Slave_DA3.c,166 :: 		}
L_main14:
;Slave_DA3.c,168 :: 		}
	GOTO       L_main12
;Slave_DA3.c,169 :: 		}
L_end_main:
	GOTO       $+0
; end of _main

_RS485_send:

;Slave_DA3.c,171 :: 		void RS485_send (char dat[])
;Slave_DA3.c,174 :: 		PORTB.RB3 =1;
	BSF        PORTB+0, 3
;Slave_DA3.c,175 :: 		for (i=0; i<=10;i++){
	CLRF       RS485_send_i_L0+0
	CLRF       RS485_send_i_L0+1
L_RS485_send33:
	MOVLW      128
	MOVWF      R0+0
	MOVLW      128
	XORWF      RS485_send_i_L0+1, 0
	SUBWF      R0+0, 0
	BTFSS      STATUS+0, 2
	GOTO       L__RS485_send48
	MOVF       RS485_send_i_L0+0, 0
	SUBLW      10
L__RS485_send48:
	BTFSS      STATUS+0, 0
	GOTO       L_RS485_send34
;Slave_DA3.c,176 :: 		while(UART1_Tx_Idle()==0);
L_RS485_send36:
	CALL       _UART1_Tx_Idle+0
	MOVF       R0+0, 0
	XORLW      0
	BTFSS      STATUS+0, 2
	GOTO       L_RS485_send37
	GOTO       L_RS485_send36
L_RS485_send37:
;Slave_DA3.c,177 :: 		UART1_Write(dat[i]);
	MOVF       RS485_send_i_L0+0, 0
	ADDWF      FARG_RS485_send_dat+0, 0
	MOVWF      FSR
	MOVF       INDF+0, 0
	MOVWF      FARG_UART1_Write_data_+0
	CALL       _UART1_Write+0
;Slave_DA3.c,175 :: 		for (i=0; i<=10;i++){
	INCF       RS485_send_i_L0+0, 1
	BTFSC      STATUS+0, 2
	INCF       RS485_send_i_L0+1, 1
;Slave_DA3.c,178 :: 		}
	GOTO       L_RS485_send33
L_RS485_send34:
;Slave_DA3.c,179 :: 		Delay_ms(100);
	MOVLW      3
	MOVWF      R11+0
	MOVLW      138
	MOVWF      R12+0
	MOVLW      85
	MOVWF      R13+0
L_RS485_send38:
	DECFSZ     R13+0, 1
	GOTO       L_RS485_send38
	DECFSZ     R12+0, 1
	GOTO       L_RS485_send38
	DECFSZ     R11+0, 1
	GOTO       L_RS485_send38
	NOP
	NOP
;Slave_DA3.c,180 :: 		PORTB.RB3 =0;
	BCF        PORTB+0, 3
;Slave_DA3.c,181 :: 		}
L_end_RS485_send:
	RETURN
; end of _RS485_send
